
custom1to9.o:     file format elf64-littleriscv


Disassembly of section .text:

00000000000100e8 <exit>:
   100e8:	ff010113          	add	sp,sp,-16
   100ec:	00000593          	li	a1,0
   100f0:	00813023          	sd	s0,0(sp)
   100f4:	00113423          	sd	ra,8(sp)
   100f8:	00050413          	mv	s0,a0
   100fc:	399020ef          	jal	12c94 <__call_exitprocs>
   10100:	7481b503          	ld	a0,1864(gp) # 24d60 <_global_impure_ptr>
   10104:	05853783          	ld	a5,88(a0)
   10108:	00078463          	beqz	a5,10110 <exit+0x28>
   1010c:	000780e7          	jalr	a5
   10110:	00040513          	mv	a0,s0
   10114:	2110f0ef          	jal	1fb24 <_exit>

0000000000010118 <main>:
   10118:	ff010113          	add	sp,sp,-16
   1011c:	00a00593          	li	a1,10
   10120:	00000513          	li	a0,0
   10124:	00113423          	sd	ra,8(sp)
   10128:	0f4000ef          	jal	1021c <load>
   1012c:	00050613          	mv	a2,a0
   10130:	00022537          	lui	a0,0x22
   10134:	00900593          	li	a1,9
   10138:	ce050513          	add	a0,a0,-800 # 21ce0 <__clzdi2+0x54>
   1013c:	2b8000ef          	jal	103f4 <printf>
   10140:	00813083          	ld	ra,8(sp)
   10144:	00000513          	li	a0,0
   10148:	01010113          	add	sp,sp,16
   1014c:	00008067          	ret

0000000000010150 <register_fini>:
   10150:	00000793          	li	a5,0
   10154:	00078863          	beqz	a5,10164 <register_fini+0x14>
   10158:	00013537          	lui	a0,0x13
   1015c:	47450513          	add	a0,a0,1140 # 13474 <__libc_fini_array>
   10160:	0510c06f          	j	1c9b0 <atexit>
   10164:	00008067          	ret

0000000000010168 <_start>:
   10168:	00014197          	auipc	gp,0x14
   1016c:	4b018193          	add	gp,gp,1200 # 24618 <__global_pointer$>
   10170:	77018513          	add	a0,gp,1904 # 24d88 <_PathLocale>
   10174:	00015617          	auipc	a2,0x15
   10178:	ca460613          	add	a2,a2,-860 # 24e18 <__BSS_END__>
   1017c:	40a60633          	sub	a2,a2,a0
   10180:	00000593          	li	a1,0
   10184:	154000ef          	jal	102d8 <memset>
   10188:	0000d517          	auipc	a0,0xd
   1018c:	82850513          	add	a0,a0,-2008 # 1c9b0 <atexit>
   10190:	00050863          	beqz	a0,101a0 <_start+0x38>
   10194:	00003517          	auipc	a0,0x3
   10198:	2e050513          	add	a0,a0,736 # 13474 <__libc_fini_array>
   1019c:	0150c0ef          	jal	1c9b0 <atexit>
   101a0:	09c000ef          	jal	1023c <__libc_init_array>
   101a4:	00012503          	lw	a0,0(sp)
   101a8:	00810593          	add	a1,sp,8
   101ac:	00000613          	li	a2,0
   101b0:	f69ff0ef          	jal	10118 <main>
   101b4:	f35ff06f          	j	100e8 <exit>

00000000000101b8 <__do_global_dtors_aux>:
   101b8:	ff010113          	add	sp,sp,-16
   101bc:	00813023          	sd	s0,0(sp)
   101c0:	7a01c783          	lbu	a5,1952(gp) # 24db8 <completed.1>
   101c4:	00113423          	sd	ra,8(sp)
   101c8:	02079263          	bnez	a5,101ec <__do_global_dtors_aux+0x34>
   101cc:	00000793          	li	a5,0
   101d0:	00078a63          	beqz	a5,101e4 <__do_global_dtors_aux+0x2c>
   101d4:	00024537          	lui	a0,0x24
   101d8:	c1050513          	add	a0,a0,-1008 # 23c10 <__EH_FRAME_BEGIN__>
   101dc:	00000097          	auipc	ra,0x0
   101e0:	000000e7          	jalr	zero # 0 <exit-0x100e8>
   101e4:	00100793          	li	a5,1
   101e8:	7af18023          	sb	a5,1952(gp) # 24db8 <completed.1>
   101ec:	00813083          	ld	ra,8(sp)
   101f0:	00013403          	ld	s0,0(sp)
   101f4:	01010113          	add	sp,sp,16
   101f8:	00008067          	ret

00000000000101fc <frame_dummy>:
   101fc:	00000793          	li	a5,0
   10200:	00078c63          	beqz	a5,10218 <frame_dummy+0x1c>
   10204:	00024537          	lui	a0,0x24
   10208:	7a818593          	add	a1,gp,1960 # 24dc0 <object.0>
   1020c:	c1050513          	add	a0,a0,-1008 # 23c10 <__EH_FRAME_BEGIN__>
   10210:	00000317          	auipc	t1,0x0
   10214:	00000067          	jr	zero # 0 <exit-0x100e8>
   10218:	00008067          	ret

000000000001021c <load>:
   1021c:	00050733          	add	a4,a0,zero
   10220:	00b50633          	add	a2,a0,a1
   10224:	000506b3          	add	a3,a0,zero

0000000000010228 <loop>:
   10228:	00e68733          	add	a4,a3,a4
   1022c:	00168693          	add	a3,a3,1
   10230:	fec6cce3          	blt	a3,a2,10228 <loop>
   10234:	00070533          	add	a0,a4,zero
   10238:	00008067          	ret

000000000001023c <__libc_init_array>:
   1023c:	fe010113          	add	sp,sp,-32
   10240:	00813823          	sd	s0,16(sp)
   10244:	000247b7          	lui	a5,0x24
   10248:	00024437          	lui	s0,0x24
   1024c:	01213023          	sd	s2,0(sp)
   10250:	c1478793          	add	a5,a5,-1004 # 23c14 <__preinit_array_end>
   10254:	c1440713          	add	a4,s0,-1004 # 23c14 <__preinit_array_end>
   10258:	00113c23          	sd	ra,24(sp)
   1025c:	00913423          	sd	s1,8(sp)
   10260:	40e78933          	sub	s2,a5,a4
   10264:	02e78263          	beq	a5,a4,10288 <__libc_init_array+0x4c>
   10268:	40395913          	sra	s2,s2,0x3
   1026c:	c1440413          	add	s0,s0,-1004
   10270:	00000493          	li	s1,0
   10274:	00043783          	ld	a5,0(s0)
   10278:	00148493          	add	s1,s1,1
   1027c:	00840413          	add	s0,s0,8
   10280:	000780e7          	jalr	a5
   10284:	ff24e8e3          	bltu	s1,s2,10274 <__libc_init_array+0x38>
   10288:	00024437          	lui	s0,0x24
   1028c:	000247b7          	lui	a5,0x24
   10290:	c2878793          	add	a5,a5,-984 # 23c28 <__do_global_dtors_aux_fini_array_entry>
   10294:	c1840713          	add	a4,s0,-1000 # 23c18 <__init_array_start>
   10298:	40e78933          	sub	s2,a5,a4
   1029c:	40395913          	sra	s2,s2,0x3
   102a0:	02e78063          	beq	a5,a4,102c0 <__libc_init_array+0x84>
   102a4:	c1840413          	add	s0,s0,-1000
   102a8:	00000493          	li	s1,0
   102ac:	00043783          	ld	a5,0(s0)
   102b0:	00148493          	add	s1,s1,1
   102b4:	00840413          	add	s0,s0,8
   102b8:	000780e7          	jalr	a5
   102bc:	ff24e8e3          	bltu	s1,s2,102ac <__libc_init_array+0x70>
   102c0:	01813083          	ld	ra,24(sp)
   102c4:	01013403          	ld	s0,16(sp)
   102c8:	00813483          	ld	s1,8(sp)
   102cc:	00013903          	ld	s2,0(sp)
   102d0:	02010113          	add	sp,sp,32
   102d4:	00008067          	ret

00000000000102d8 <memset>:
   102d8:	00f00313          	li	t1,15
   102dc:	00050713          	mv	a4,a0
   102e0:	02c37a63          	bgeu	t1,a2,10314 <memset+0x3c>
   102e4:	00f77793          	and	a5,a4,15
   102e8:	0a079063          	bnez	a5,10388 <memset+0xb0>
   102ec:	06059e63          	bnez	a1,10368 <memset+0x90>
   102f0:	ff067693          	and	a3,a2,-16
   102f4:	00f67613          	and	a2,a2,15
   102f8:	00e686b3          	add	a3,a3,a4
   102fc:	00b73023          	sd	a1,0(a4)
   10300:	00b73423          	sd	a1,8(a4)
   10304:	01070713          	add	a4,a4,16
   10308:	fed76ae3          	bltu	a4,a3,102fc <memset+0x24>
   1030c:	00061463          	bnez	a2,10314 <memset+0x3c>
   10310:	00008067          	ret
   10314:	40c306b3          	sub	a3,t1,a2
   10318:	00269693          	sll	a3,a3,0x2
   1031c:	00000297          	auipc	t0,0x0
   10320:	005686b3          	add	a3,a3,t0
   10324:	00c68067          	jr	12(a3)
   10328:	00b70723          	sb	a1,14(a4)
   1032c:	00b706a3          	sb	a1,13(a4)
   10330:	00b70623          	sb	a1,12(a4)
   10334:	00b705a3          	sb	a1,11(a4)
   10338:	00b70523          	sb	a1,10(a4)
   1033c:	00b704a3          	sb	a1,9(a4)
   10340:	00b70423          	sb	a1,8(a4)
   10344:	00b703a3          	sb	a1,7(a4)
   10348:	00b70323          	sb	a1,6(a4)
   1034c:	00b702a3          	sb	a1,5(a4)
   10350:	00b70223          	sb	a1,4(a4)
   10354:	00b701a3          	sb	a1,3(a4)
   10358:	00b70123          	sb	a1,2(a4)
   1035c:	00b700a3          	sb	a1,1(a4)
   10360:	00b70023          	sb	a1,0(a4)
   10364:	00008067          	ret
   10368:	0ff5f593          	zext.b	a1,a1
   1036c:	00859693          	sll	a3,a1,0x8
   10370:	00d5e5b3          	or	a1,a1,a3
   10374:	01059693          	sll	a3,a1,0x10
   10378:	00d5e5b3          	or	a1,a1,a3
   1037c:	02059693          	sll	a3,a1,0x20
   10380:	00d5e5b3          	or	a1,a1,a3
   10384:	f6dff06f          	j	102f0 <memset+0x18>
   10388:	00279693          	sll	a3,a5,0x2
   1038c:	00000297          	auipc	t0,0x0
   10390:	005686b3          	add	a3,a3,t0
   10394:	00008293          	mv	t0,ra
   10398:	f98680e7          	jalr	-104(a3)
   1039c:	00028093          	mv	ra,t0
   103a0:	ff078793          	add	a5,a5,-16
   103a4:	40f70733          	sub	a4,a4,a5
   103a8:	00f60633          	add	a2,a2,a5
   103ac:	f6c374e3          	bgeu	t1,a2,10314 <memset+0x3c>
   103b0:	f3dff06f          	j	102ec <memset+0x14>

00000000000103b4 <_printf_r>:
   103b4:	fb010113          	add	sp,sp,-80
   103b8:	02c13023          	sd	a2,32(sp)
   103bc:	02d13423          	sd	a3,40(sp)
   103c0:	02e13823          	sd	a4,48(sp)
   103c4:	02f13c23          	sd	a5,56(sp)
   103c8:	05013023          	sd	a6,64(sp)
   103cc:	05113423          	sd	a7,72(sp)
   103d0:	00058613          	mv	a2,a1
   103d4:	01053583          	ld	a1,16(a0)
   103d8:	02010693          	add	a3,sp,32
   103dc:	00113c23          	sd	ra,24(sp)
   103e0:	00d13423          	sd	a3,8(sp)
   103e4:	05c000ef          	jal	10440 <_vfprintf_r>
   103e8:	01813083          	ld	ra,24(sp)
   103ec:	05010113          	add	sp,sp,80
   103f0:	00008067          	ret

00000000000103f4 <printf>:
   103f4:	7581b303          	ld	t1,1880(gp) # 24d70 <_impure_ptr>
   103f8:	fa010113          	add	sp,sp,-96
   103fc:	02c13823          	sd	a2,48(sp)
   10400:	02d13c23          	sd	a3,56(sp)
   10404:	02b13423          	sd	a1,40(sp)
   10408:	04e13023          	sd	a4,64(sp)
   1040c:	04f13423          	sd	a5,72(sp)
   10410:	05013823          	sd	a6,80(sp)
   10414:	05113c23          	sd	a7,88(sp)
   10418:	01033583          	ld	a1,16(t1) # 10220 <load+0x4>
   1041c:	02810693          	add	a3,sp,40
   10420:	00050613          	mv	a2,a0
   10424:	00030513          	mv	a0,t1
   10428:	00113c23          	sd	ra,24(sp)
   1042c:	00d13423          	sd	a3,8(sp)
   10430:	010000ef          	jal	10440 <_vfprintf_r>
   10434:	01813083          	ld	ra,24(sp)
   10438:	06010113          	add	sp,sp,96
   1043c:	00008067          	ret

0000000000010440 <_vfprintf_r>:
   10440:	d9010113          	add	sp,sp,-624
   10444:	26113423          	sd	ra,616(sp)
   10448:	26813023          	sd	s0,608(sp)
   1044c:	25213823          	sd	s2,592(sp)
   10450:	00b13023          	sd	a1,0(sp)
   10454:	00060913          	mv	s2,a2
   10458:	02d13023          	sd	a3,32(sp)
   1045c:	24913c23          	sd	s1,600(sp)
   10460:	25313423          	sd	s3,584(sp)
   10464:	25413023          	sd	s4,576(sp)
   10468:	23513c23          	sd	s5,568(sp)
   1046c:	23613823          	sd	s6,560(sp)
   10470:	23713423          	sd	s7,552(sp)
   10474:	23813023          	sd	s8,544(sp)
   10478:	21913c23          	sd	s9,536(sp)
   1047c:	21a13823          	sd	s10,528(sp)
   10480:	21b13423          	sd	s11,520(sp)
   10484:	00050413          	mv	s0,a0
   10488:	04a13823          	sd	a0,80(sp)
   1048c:	2c8060ef          	jal	16754 <_localeconv_r>
   10490:	00053703          	ld	a4,0(a0)
   10494:	00070513          	mv	a0,a4
   10498:	06e13023          	sd	a4,96(sp)
   1049c:	001080ef          	jal	18c9c <strlen>
   104a0:	04a13c23          	sd	a0,88(sp)
   104a4:	0e013823          	sd	zero,240(sp)
   104a8:	0e013c23          	sd	zero,248(sp)
   104ac:	00040663          	beqz	s0,104b8 <_vfprintf_r+0x78>
   104b0:	05042703          	lw	a4,80(s0)
   104b4:	5e070a63          	beqz	a4,10aa8 <_vfprintf_r+0x668>
   104b8:	00013783          	ld	a5,0(sp)
   104bc:	01079703          	lh	a4,16(a5)
   104c0:	03271693          	sll	a3,a4,0x32
   104c4:	0206c663          	bltz	a3,104f0 <_vfprintf_r+0xb0>
   104c8:	0ac7a683          	lw	a3,172(a5)
   104cc:	00002637          	lui	a2,0x2
   104d0:	00c76733          	or	a4,a4,a2
   104d4:	ffffe637          	lui	a2,0xffffe
   104d8:	0107171b          	sllw	a4,a4,0x10
   104dc:	fff60613          	add	a2,a2,-1 # ffffffffffffdfff <__BSS_END__+0xfffffffffffd91e7>
   104e0:	4107571b          	sraw	a4,a4,0x10
   104e4:	00c6f6b3          	and	a3,a3,a2
   104e8:	00e79823          	sh	a4,16(a5)
   104ec:	0ad7a623          	sw	a3,172(a5)
   104f0:	00877693          	and	a3,a4,8
   104f4:	32068263          	beqz	a3,10818 <_vfprintf_r+0x3d8>
   104f8:	00013783          	ld	a5,0(sp)
   104fc:	0187b683          	ld	a3,24(a5)
   10500:	30068c63          	beqz	a3,10818 <_vfprintf_r+0x3d8>
   10504:	01a77713          	and	a4,a4,26
   10508:	00a00693          	li	a3,10
   1050c:	32d70a63          	beq	a4,a3,10840 <_vfprintf_r+0x400>
   10510:	18010793          	add	a5,sp,384
   10514:	00022737          	lui	a4,0x22
   10518:	00078313          	mv	t1,a5
   1051c:	10f13023          	sd	a5,256(sp)
   10520:	00090b13          	mv	s6,s2
   10524:	d6470793          	add	a5,a4,-668 # 21d64 <__clzdi2+0xd8>
   10528:	00022737          	lui	a4,0x22
   1052c:	02f13423          	sd	a5,40(sp)
   10530:	f6870793          	add	a5,a4,-152 # 21f68 <zeroes.0>
   10534:	000b4703          	lbu	a4,0(s6)
   10538:	10013823          	sd	zero,272(sp)
   1053c:	10012423          	sw	zero,264(sp)
   10540:	02013c23          	sd	zero,56(sp)
   10544:	06013423          	sd	zero,104(sp)
   10548:	06013823          	sd	zero,112(sp)
   1054c:	06013c23          	sd	zero,120(sp)
   10550:	08013023          	sd	zero,128(sp)
   10554:	08013423          	sd	zero,136(sp)
   10558:	00013823          	sd	zero,16(sp)
   1055c:	00f13423          	sd	a5,8(sp)
   10560:	05013983          	ld	s3,80(sp)
   10564:	00030413          	mv	s0,t1
   10568:	24070063          	beqz	a4,107a8 <_vfprintf_r+0x368>
   1056c:	000b0493          	mv	s1,s6
   10570:	02500693          	li	a3,37
   10574:	2ed70a63          	beq	a4,a3,10868 <_vfprintf_r+0x428>
   10578:	0014c703          	lbu	a4,1(s1)
   1057c:	00148493          	add	s1,s1,1
   10580:	fe071ae3          	bnez	a4,10574 <_vfprintf_r+0x134>
   10584:	4164893b          	subw	s2,s1,s6
   10588:	22090063          	beqz	s2,107a8 <_vfprintf_r+0x368>
   1058c:	11013d83          	ld	s11,272(sp)
   10590:	10812683          	lw	a3,264(sp)
   10594:	01643023          	sd	s6,0(s0)
   10598:	012d8733          	add	a4,s11,s2
   1059c:	0016861b          	addw	a2,a3,1
   105a0:	01243423          	sd	s2,8(s0)
   105a4:	10e13823          	sd	a4,272(sp)
   105a8:	10c12423          	sw	a2,264(sp)
   105ac:	00700713          	li	a4,7
   105b0:	01040413          	add	s0,s0,16
   105b4:	2cc74263          	blt	a4,a2,10878 <_vfprintf_r+0x438>
   105b8:	01013783          	ld	a5,16(sp)
   105bc:	0004c703          	lbu	a4,0(s1)
   105c0:	012787bb          	addw	a5,a5,s2
   105c4:	00f13823          	sd	a5,16(sp)
   105c8:	1e070063          	beqz	a4,107a8 <_vfprintf_r+0x368>
   105cc:	fff00313          	li	t1,-1
   105d0:	0014ce03          	lbu	t3,1(s1)
   105d4:	0c0107a3          	sb	zero,207(sp)
   105d8:	00148493          	add	s1,s1,1
   105dc:	00000a13          	li	s4,0
   105e0:	00000913          	li	s2,0
   105e4:	05a00b93          	li	s7,90
   105e8:	00030a93          	mv	s5,t1
   105ec:	00148493          	add	s1,s1,1
   105f0:	000e0c9b          	sext.w	s9,t3
   105f4:	fe0c879b          	addw	a5,s9,-32
   105f8:	0007871b          	sext.w	a4,a5
   105fc:	04ebec63          	bltu	s7,a4,10654 <_vfprintf_r+0x214>
   10600:	02079713          	sll	a4,a5,0x20
   10604:	01e75793          	srl	a5,a4,0x1e
   10608:	02813703          	ld	a4,40(sp)
   1060c:	00e787b3          	add	a5,a5,a4
   10610:	0007a783          	lw	a5,0(a5)
   10614:	00078067          	jr	a5
   10618:	00000a13          	li	s4,0
   1061c:	00900693          	li	a3,9
   10620:	0004c703          	lbu	a4,0(s1)
   10624:	002a179b          	sllw	a5,s4,0x2
   10628:	01478a3b          	addw	s4,a5,s4
   1062c:	fd0c8c9b          	addw	s9,s9,-48
   10630:	001a1a1b          	sllw	s4,s4,0x1
   10634:	fd07079b          	addw	a5,a4,-48
   10638:	014c8a3b          	addw	s4,s9,s4
   1063c:	00148493          	add	s1,s1,1
   10640:	00070c9b          	sext.w	s9,a4
   10644:	fcf6fee3          	bgeu	a3,a5,10620 <_vfprintf_r+0x1e0>
   10648:	fe0c879b          	addw	a5,s9,-32
   1064c:	0007871b          	sext.w	a4,a5
   10650:	faebf8e3          	bgeu	s7,a4,10600 <_vfprintf_r+0x1c0>
   10654:	140c8a63          	beqz	s9,107a8 <_vfprintf_r+0x368>
   10658:	11910c23          	sb	s9,280(sp)
   1065c:	0c0107a3          	sb	zero,207(sp)
   10660:	00100c13          	li	s8,1
   10664:	00100d13          	li	s10,1
   10668:	11810b13          	add	s6,sp,280
   1066c:	00013c23          	sd	zero,24(sp)
   10670:	00000313          	li	t1,0
   10674:	04013423          	sd	zero,72(sp)
   10678:	04013023          	sd	zero,64(sp)
   1067c:	02013823          	sd	zero,48(sp)
   10680:	00297b93          	and	s7,s2,2
   10684:	000b8463          	beqz	s7,1068c <_vfprintf_r+0x24c>
   10688:	002c0c1b          	addw	s8,s8,2
   1068c:	08497a93          	and	s5,s2,132
   10690:	000a9663          	bnez	s5,1069c <_vfprintf_r+0x25c>
   10694:	418a073b          	subw	a4,s4,s8
   10698:	34e046e3          	bgtz	a4,111e4 <_vfprintf_r+0xda4>
   1069c:	0cf14703          	lbu	a4,207(sp)
   106a0:	11013d83          	ld	s11,272(sp)
   106a4:	02070c63          	beqz	a4,106dc <_vfprintf_r+0x29c>
   106a8:	10812603          	lw	a2,264(sp)
   106ac:	0cf10593          	add	a1,sp,207
   106b0:	00b43023          	sd	a1,0(s0)
   106b4:	0016061b          	addw	a2,a2,1
   106b8:	00100593          	li	a1,1
   106bc:	001d8d93          	add	s11,s11,1
   106c0:	00b43423          	sd	a1,8(s0)
   106c4:	10c12423          	sw	a2,264(sp)
   106c8:	0006059b          	sext.w	a1,a2
   106cc:	11b13823          	sd	s11,272(sp)
   106d0:	00700613          	li	a2,7
   106d4:	01040413          	add	s0,s0,16
   106d8:	2ab64463          	blt	a2,a1,10980 <_vfprintf_r+0x540>
   106dc:	020b8c63          	beqz	s7,10714 <_vfprintf_r+0x2d4>
   106e0:	10812603          	lw	a2,264(sp)
   106e4:	00200593          	li	a1,2
   106e8:	002d8d93          	add	s11,s11,2
   106ec:	0016061b          	addw	a2,a2,1
   106f0:	0d010793          	add	a5,sp,208
   106f4:	00b43423          	sd	a1,8(s0)
   106f8:	00f43023          	sd	a5,0(s0)
   106fc:	0006059b          	sext.w	a1,a2
   10700:	10c12423          	sw	a2,264(sp)
   10704:	11b13823          	sd	s11,272(sp)
   10708:	00700613          	li	a2,7
   1070c:	01040413          	add	s0,s0,16
   10710:	3eb64ae3          	blt	a2,a1,11304 <_vfprintf_r+0xec4>
   10714:	08000613          	li	a2,128
   10718:	0eca80e3          	beq	s5,a2,10ff8 <_vfprintf_r+0xbb8>
   1071c:	41a30bbb          	subw	s7,t1,s10
   10720:	1d7040e3          	bgtz	s7,110e0 <_vfprintf_r+0xca0>
   10724:	10097613          	and	a2,s2,256
   10728:	70061863          	bnez	a2,10e38 <_vfprintf_r+0x9f8>
   1072c:	10812603          	lw	a2,264(sp)
   10730:	01bd0733          	add	a4,s10,s11
   10734:	01643023          	sd	s6,0(s0)
   10738:	0016069b          	addw	a3,a2,1
   1073c:	01a43423          	sd	s10,8(s0)
   10740:	10e13823          	sd	a4,272(sp)
   10744:	10d12423          	sw	a3,264(sp)
   10748:	00700793          	li	a5,7
   1074c:	32d7ce63          	blt	a5,a3,10a88 <_vfprintf_r+0x648>
   10750:	01040413          	add	s0,s0,16
   10754:	00497913          	and	s2,s2,4
   10758:	00090663          	beqz	s2,10764 <_vfprintf_r+0x324>
   1075c:	418a093b          	subw	s2,s4,s8
   10760:	3d2046e3          	bgtz	s2,1132c <_vfprintf_r+0xeec>
   10764:	000a0793          	mv	a5,s4
   10768:	018a5463          	bge	s4,s8,10770 <_vfprintf_r+0x330>
   1076c:	000c0793          	mv	a5,s8
   10770:	01013683          	ld	a3,16(sp)
   10774:	00d787bb          	addw	a5,a5,a3
   10778:	00f13823          	sd	a5,16(sp)
   1077c:	240710e3          	bnez	a4,111bc <_vfprintf_r+0xd7c>
   10780:	01813783          	ld	a5,24(sp)
   10784:	10012423          	sw	zero,264(sp)
   10788:	00078863          	beqz	a5,10798 <_vfprintf_r+0x358>
   1078c:	01813583          	ld	a1,24(sp)
   10790:	00098513          	mv	a0,s3
   10794:	679020ef          	jal	1360c <_free_r>
   10798:	18010413          	add	s0,sp,384
   1079c:	00048b13          	mv	s6,s1
   107a0:	000b4703          	lbu	a4,0(s6)
   107a4:	dc0714e3          	bnez	a4,1056c <_vfprintf_r+0x12c>
   107a8:	11013783          	ld	a5,272(sp)
   107ac:	00078463          	beqz	a5,107b4 <_vfprintf_r+0x374>
   107b0:	2190106f          	j	121c8 <_vfprintf_r+0x1d88>
   107b4:	00013783          	ld	a5,0(sp)
   107b8:	0107d783          	lhu	a5,16(a5)
   107bc:	0407f793          	and	a5,a5,64
   107c0:	00078463          	beqz	a5,107c8 <_vfprintf_r+0x388>
   107c4:	7ed0106f          	j	127b0 <_vfprintf_r+0x2370>
   107c8:	26813083          	ld	ra,616(sp)
   107cc:	26013403          	ld	s0,608(sp)
   107d0:	01013503          	ld	a0,16(sp)
   107d4:	25813483          	ld	s1,600(sp)
   107d8:	25013903          	ld	s2,592(sp)
   107dc:	24813983          	ld	s3,584(sp)
   107e0:	24013a03          	ld	s4,576(sp)
   107e4:	23813a83          	ld	s5,568(sp)
   107e8:	23013b03          	ld	s6,560(sp)
   107ec:	22813b83          	ld	s7,552(sp)
   107f0:	22013c03          	ld	s8,544(sp)
   107f4:	21813c83          	ld	s9,536(sp)
   107f8:	21013d03          	ld	s10,528(sp)
   107fc:	20813d83          	ld	s11,520(sp)
   10800:	27010113          	add	sp,sp,624
   10804:	00008067          	ret
   10808:	01096913          	or	s2,s2,16
   1080c:	0004ce03          	lbu	t3,0(s1)
   10810:	0009091b          	sext.w	s2,s2
   10814:	dd9ff06f          	j	105ec <_vfprintf_r+0x1ac>
   10818:	00013583          	ld	a1,0(sp)
   1081c:	05013503          	ld	a0,80(sp)
   10820:	334020ef          	jal	12b54 <__swsetup_r>
   10824:	00050463          	beqz	a0,1082c <_vfprintf_r+0x3ec>
   10828:	7890106f          	j	127b0 <_vfprintf_r+0x2370>
   1082c:	00013783          	ld	a5,0(sp)
   10830:	00a00693          	li	a3,10
   10834:	01079703          	lh	a4,16(a5)
   10838:	01a77713          	and	a4,a4,26
   1083c:	ccd71ae3          	bne	a4,a3,10510 <_vfprintf_r+0xd0>
   10840:	00013783          	ld	a5,0(sp)
   10844:	01279703          	lh	a4,18(a5)
   10848:	cc0744e3          	bltz	a4,10510 <_vfprintf_r+0xd0>
   1084c:	02013683          	ld	a3,32(sp)
   10850:	05013503          	ld	a0,80(sp)
   10854:	00090613          	mv	a2,s2
   10858:	00078593          	mv	a1,a5
   1085c:	22c020ef          	jal	12a88 <__sbprintf>
   10860:	00a13823          	sd	a0,16(sp)
   10864:	f65ff06f          	j	107c8 <_vfprintf_r+0x388>
   10868:	4164893b          	subw	s2,s1,s6
   1086c:	d20910e3          	bnez	s2,1058c <_vfprintf_r+0x14c>
   10870:	0004c703          	lbu	a4,0(s1)
   10874:	d55ff06f          	j	105c8 <_vfprintf_r+0x188>
   10878:	00013583          	ld	a1,0(sp)
   1087c:	10010613          	add	a2,sp,256
   10880:	00098513          	mv	a0,s3
   10884:	44d0a0ef          	jal	1b4d0 <__sprint_r>
   10888:	f20516e3          	bnez	a0,107b4 <_vfprintf_r+0x374>
   1088c:	18010413          	add	s0,sp,384
   10890:	d29ff06f          	j	105b8 <_vfprintf_r+0x178>
   10894:	00897713          	and	a4,s2,8
   10898:	000a8313          	mv	t1,s5
   1089c:	6a071ce3          	bnez	a4,11754 <_vfprintf_r+0x1314>
   108a0:	02013783          	ld	a5,32(sp)
   108a4:	01513c23          	sd	s5,24(sp)
   108a8:	0007b503          	ld	a0,0(a5)
   108ac:	00878a93          	add	s5,a5,8
   108b0:	03513023          	sd	s5,32(sp)
   108b4:	004110ef          	jal	218b8 <__extenddftf2>
   108b8:	01813303          	ld	t1,24(sp)
   108bc:	00050713          	mv	a4,a0
   108c0:	0f010513          	add	a0,sp,240
   108c4:	00613c23          	sd	t1,24(sp)
   108c8:	0ee13823          	sd	a4,240(sp)
   108cc:	0eb13c23          	sd	a1,248(sp)
   108d0:	615050ef          	jal	166e4 <_ldcheck>
   108d4:	0ca12c23          	sw	a0,216(sp)
   108d8:	00200713          	li	a4,2
   108dc:	01813303          	ld	t1,24(sp)
   108e0:	00e51463          	bne	a0,a4,108e8 <_vfprintf_r+0x4a8>
   108e4:	28c0106f          	j	11b70 <_vfprintf_r+0x1730>
   108e8:	00100713          	li	a4,1
   108ec:	00e51463          	bne	a0,a4,108f4 <_vfprintf_r+0x4b4>
   108f0:	3c40106f          	j	11cb4 <_vfprintf_r+0x1874>
   108f4:	06100713          	li	a4,97
   108f8:	00ec9463          	bne	s9,a4,10900 <_vfprintf_r+0x4c0>
   108fc:	4c90106f          	j	125c4 <_vfprintf_r+0x2184>
   10900:	04100713          	li	a4,65
   10904:	00ec9463          	bne	s9,a4,1090c <_vfprintf_r+0x4cc>
   10908:	1010106f          	j	12208 <_vfprintf_r+0x1dc8>
   1090c:	fff00713          	li	a4,-1
   10910:	00e31463          	bne	t1,a4,10918 <_vfprintf_r+0x4d8>
   10914:	7f10106f          	j	12904 <_vfprintf_r+0x24c4>
   10918:	fdfcf713          	and	a4,s9,-33
   1091c:	04700693          	li	a3,71
   10920:	00d71463          	bne	a4,a3,10928 <_vfprintf_r+0x4e8>
   10924:	7d10106f          	j	128f4 <_vfprintf_r+0x24b4>
   10928:	10096713          	or	a4,s2,256
   1092c:	0f813c03          	ld	s8,248(sp)
   10930:	0007079b          	sext.w	a5,a4
   10934:	08f13823          	sd	a5,144(sp)
   10938:	05213023          	sd	s2,64(sp)
   1093c:	0f013b83          	ld	s7,240(sp)
   10940:	000c5463          	bgez	s8,10948 <_vfprintf_r+0x508>
   10944:	4190106f          	j	1255c <_vfprintf_r+0x211c>
   10948:	08013c23          	sd	zero,152(sp)
   1094c:	00013c23          	sd	zero,24(sp)
   10950:	fbfc871b          	addw	a4,s9,-65
   10954:	0007061b          	sext.w	a2,a4
   10958:	02500693          	li	a3,37
   1095c:	00c6f463          	bgeu	a3,a2,10964 <_vfprintf_r+0x524>
   10960:	5e80106f          	j	11f48 <_vfprintf_r+0x1b08>
   10964:	02071693          	sll	a3,a4,0x20
   10968:	01e6d713          	srl	a4,a3,0x1e
   1096c:	000226b7          	lui	a3,0x22
   10970:	ed068693          	add	a3,a3,-304 # 21ed0 <__clzdi2+0x244>
   10974:	00d70733          	add	a4,a4,a3
   10978:	00072703          	lw	a4,0(a4)
   1097c:	00070067          	jr	a4
   10980:	00013583          	ld	a1,0(sp)
   10984:	10010613          	add	a2,sp,256
   10988:	00098513          	mv	a0,s3
   1098c:	08613823          	sd	t1,144(sp)
   10990:	3410a0ef          	jal	1b4d0 <__sprint_r>
   10994:	02051ee3          	bnez	a0,111d0 <_vfprintf_r+0xd90>
   10998:	11013d83          	ld	s11,272(sp)
   1099c:	09013303          	ld	t1,144(sp)
   109a0:	18010413          	add	s0,sp,384
   109a4:	d39ff06f          	j	106dc <_vfprintf_r+0x29c>
   109a8:	03813783          	ld	a5,56(sp)
   109ac:	00100693          	li	a3,1
   109b0:	01040c93          	add	s9,s0,16
   109b4:	3af6dae3          	bge	a3,a5,11568 <_vfprintf_r+0x1128>
   109b8:	10812603          	lw	a2,264(sp)
   109bc:	00100693          	li	a3,1
   109c0:	001d8713          	add	a4,s11,1
   109c4:	0016061b          	addw	a2,a2,1
   109c8:	00d43423          	sd	a3,8(s0)
   109cc:	10c12423          	sw	a2,264(sp)
   109d0:	0006069b          	sext.w	a3,a2
   109d4:	01643023          	sd	s6,0(s0)
   109d8:	10e13823          	sd	a4,272(sp)
   109dc:	00700613          	li	a2,7
   109e0:	76d64ae3          	blt	a2,a3,11954 <_vfprintf_r+0x1514>
   109e4:	05813783          	ld	a5,88(sp)
   109e8:	0016841b          	addw	s0,a3,1
   109ec:	10812423          	sw	s0,264(sp)
   109f0:	00e78d33          	add	s10,a5,a4
   109f4:	06013703          	ld	a4,96(sp)
   109f8:	00fcb423          	sd	a5,8(s9)
   109fc:	11a13823          	sd	s10,272(sp)
   10a00:	00ecb023          	sd	a4,0(s9)
   10a04:	00700713          	li	a4,7
   10a08:	010c8c93          	add	s9,s9,16
   10a0c:	768746e3          	blt	a4,s0,11978 <_vfprintf_r+0x1538>
   10a10:	0f013503          	ld	a0,240(sp)
   10a14:	0f813583          	ld	a1,248(sp)
   10a18:	00000613          	li	a2,0
   10a1c:	00000693          	li	a3,0
   10a20:	2ed0f0ef          	jal	2050c <__eqtf2>
   10a24:	03813783          	ld	a5,56(sp)
   10a28:	fff78a9b          	addw	s5,a5,-1
   10a2c:	380508e3          	beqz	a0,115bc <_vfprintf_r+0x117c>
   10a30:	001b0793          	add	a5,s6,1
   10a34:	0014041b          	addw	s0,s0,1
   10a38:	015d0d33          	add	s10,s10,s5
   10a3c:	00fcb023          	sd	a5,0(s9)
   10a40:	015cb423          	sd	s5,8(s9)
   10a44:	11a13823          	sd	s10,272(sp)
   10a48:	10812423          	sw	s0,264(sp)
   10a4c:	00700793          	li	a5,7
   10a50:	3487c4e3          	blt	a5,s0,11598 <_vfprintf_r+0x1158>
   10a54:	010c8c93          	add	s9,s9,16
   10a58:	07013683          	ld	a3,112(sp)
   10a5c:	0014041b          	addw	s0,s0,1
   10a60:	0e010793          	add	a5,sp,224
   10a64:	01a68733          	add	a4,a3,s10
   10a68:	00fcb023          	sd	a5,0(s9)
   10a6c:	00dcb423          	sd	a3,8(s9)
   10a70:	10812423          	sw	s0,264(sp)
   10a74:	0004069b          	sext.w	a3,s0
   10a78:	10e13823          	sd	a4,272(sp)
   10a7c:	00700793          	li	a5,7
   10a80:	010c8413          	add	s0,s9,16
   10a84:	ccd7d8e3          	bge	a5,a3,10754 <_vfprintf_r+0x314>
   10a88:	00013583          	ld	a1,0(sp)
   10a8c:	10010613          	add	a2,sp,256
   10a90:	00098513          	mv	a0,s3
   10a94:	23d0a0ef          	jal	1b4d0 <__sprint_r>
   10a98:	72051c63          	bnez	a0,111d0 <_vfprintf_r+0xd90>
   10a9c:	11013703          	ld	a4,272(sp)
   10aa0:	18010413          	add	s0,sp,384
   10aa4:	cb1ff06f          	j	10754 <_vfprintf_r+0x314>
   10aa8:	05013503          	ld	a0,80(sp)
   10aac:	189020ef          	jal	13434 <__sinit>
   10ab0:	a09ff06f          	j	104b8 <_vfprintf_r+0x78>
   10ab4:	02013703          	ld	a4,32(sp)
   10ab8:	0c0107a3          	sb	zero,207(sp)
   10abc:	00100c13          	li	s8,1
   10ac0:	00072783          	lw	a5,0(a4)
   10ac4:	00870713          	add	a4,a4,8
   10ac8:	02e13023          	sd	a4,32(sp)
   10acc:	10f10c23          	sb	a5,280(sp)
   10ad0:	00100d13          	li	s10,1
   10ad4:	11810b13          	add	s6,sp,280
   10ad8:	b95ff06f          	j	1066c <_vfprintf_r+0x22c>
   10adc:	02013783          	ld	a5,32(sp)
   10ae0:	0c0107a3          	sb	zero,207(sp)
   10ae4:	000a8313          	mv	t1,s5
   10ae8:	0007bb03          	ld	s6,0(a5)
   10aec:	00878a93          	add	s5,a5,8
   10af0:	5a0b0ae3          	beqz	s6,118a4 <_vfprintf_r+0x1464>
   10af4:	fff00713          	li	a4,-1
   10af8:	00e31463          	bne	t1,a4,10b00 <_vfprintf_r+0x6c0>
   10afc:	1300106f          	j	11c2c <_vfprintf_r+0x17ec>
   10b00:	00030613          	mv	a2,t1
   10b04:	00000593          	li	a1,0
   10b08:	000b0513          	mv	a0,s6
   10b0c:	02613023          	sd	t1,32(sp)
   10b10:	009060ef          	jal	17318 <memchr>
   10b14:	00a13c23          	sd	a0,24(sp)
   10b18:	02013303          	ld	t1,32(sp)
   10b1c:	00051463          	bnez	a0,10b24 <_vfprintf_r+0x6e4>
   10b20:	3310106f          	j	12650 <_vfprintf_r+0x2210>
   10b24:	01813783          	ld	a5,24(sp)
   10b28:	41678d3b          	subw	s10,a5,s6
   10b2c:	0cf14703          	lbu	a4,207(sp)
   10b30:	fffd4813          	not	a6,s10
   10b34:	43f85813          	sra	a6,a6,0x3f
   10b38:	03513023          	sd	s5,32(sp)
   10b3c:	00013c23          	sd	zero,24(sp)
   10b40:	04013423          	sd	zero,72(sp)
   10b44:	04013023          	sd	zero,64(sp)
   10b48:	02013823          	sd	zero,48(sp)
   10b4c:	01a87c33          	and	s8,a6,s10
   10b50:	00000313          	li	t1,0
   10b54:	b20706e3          	beqz	a4,10680 <_vfprintf_r+0x240>
   10b58:	001c0c1b          	addw	s8,s8,1
   10b5c:	b25ff06f          	j	10680 <_vfprintf_r+0x240>
   10b60:	02013783          	ld	a5,32(sp)
   10b64:	0007aa03          	lw	s4,0(a5)
   10b68:	00878793          	add	a5,a5,8
   10b6c:	3a0a52e3          	bgez	s4,11710 <_vfprintf_r+0x12d0>
   10b70:	41400a3b          	negw	s4,s4
   10b74:	02f13023          	sd	a5,32(sp)
   10b78:	00496913          	or	s2,s2,4
   10b7c:	0004ce03          	lbu	t3,0(s1)
   10b80:	0009091b          	sext.w	s2,s2
   10b84:	a69ff06f          	j	105ec <_vfprintf_r+0x1ac>
   10b88:	02b00793          	li	a5,43
   10b8c:	0004ce03          	lbu	t3,0(s1)
   10b90:	0cf107a3          	sb	a5,207(sp)
   10b94:	a59ff06f          	j	105ec <_vfprintf_r+0x1ac>
   10b98:	08096913          	or	s2,s2,128
   10b9c:	0004ce03          	lbu	t3,0(s1)
   10ba0:	0009091b          	sext.w	s2,s2
   10ba4:	a49ff06f          	j	105ec <_vfprintf_r+0x1ac>
   10ba8:	0004cc83          	lbu	s9,0(s1)
   10bac:	02a00693          	li	a3,42
   10bb0:	00148793          	add	a5,s1,1
   10bb4:	00dc9463          	bne	s9,a3,10bbc <_vfprintf_r+0x77c>
   10bb8:	6610106f          	j	12a18 <_vfprintf_r+0x25d8>
   10bbc:	fd0c871b          	addw	a4,s9,-48
   10bc0:	00900613          	li	a2,9
   10bc4:	00078493          	mv	s1,a5
   10bc8:	00000a93          	li	s5,0
   10bcc:	00900693          	li	a3,9
   10bd0:	a2e662e3          	bltu	a2,a4,105f4 <_vfprintf_r+0x1b4>
   10bd4:	0004cc83          	lbu	s9,0(s1)
   10bd8:	002a979b          	sllw	a5,s5,0x2
   10bdc:	0157833b          	addw	t1,a5,s5
   10be0:	0013131b          	sllw	t1,t1,0x1
   10be4:	00e30abb          	addw	s5,t1,a4
   10be8:	fd0c871b          	addw	a4,s9,-48
   10bec:	00148493          	add	s1,s1,1
   10bf0:	fee6f2e3          	bgeu	a3,a4,10bd4 <_vfprintf_r+0x794>
   10bf4:	a01ff06f          	j	105f4 <_vfprintf_r+0x1b4>
   10bf8:	00098513          	mv	a0,s3
   10bfc:	359050ef          	jal	16754 <_localeconv_r>
   10c00:	00853783          	ld	a5,8(a0)
   10c04:	00078513          	mv	a0,a5
   10c08:	08f13423          	sd	a5,136(sp)
   10c0c:	090080ef          	jal	18c9c <strlen>
   10c10:	00050793          	mv	a5,a0
   10c14:	00098513          	mv	a0,s3
   10c18:	00078c13          	mv	s8,a5
   10c1c:	08f13023          	sd	a5,128(sp)
   10c20:	335050ef          	jal	16754 <_localeconv_r>
   10c24:	01053703          	ld	a4,16(a0)
   10c28:	0004ce03          	lbu	t3,0(s1)
   10c2c:	06e13c23          	sd	a4,120(sp)
   10c30:	9a0c0ee3          	beqz	s8,105ec <_vfprintf_r+0x1ac>
   10c34:	9a070ce3          	beqz	a4,105ec <_vfprintf_r+0x1ac>
   10c38:	00074783          	lbu	a5,0(a4)
   10c3c:	9a0788e3          	beqz	a5,105ec <_vfprintf_r+0x1ac>
   10c40:	40096913          	or	s2,s2,1024
   10c44:	0009091b          	sext.w	s2,s2
   10c48:	9a5ff06f          	j	105ec <_vfprintf_r+0x1ac>
   10c4c:	00196913          	or	s2,s2,1
   10c50:	0004ce03          	lbu	t3,0(s1)
   10c54:	0009091b          	sext.w	s2,s2
   10c58:	995ff06f          	j	105ec <_vfprintf_r+0x1ac>
   10c5c:	0cf14783          	lbu	a5,207(sp)
   10c60:	0004ce03          	lbu	t3,0(s1)
   10c64:	980794e3          	bnez	a5,105ec <_vfprintf_r+0x1ac>
   10c68:	02000793          	li	a5,32
   10c6c:	0cf107a3          	sb	a5,207(sp)
   10c70:	97dff06f          	j	105ec <_vfprintf_r+0x1ac>
   10c74:	01096d93          	or	s11,s2,16
   10c78:	000a8313          	mv	t1,s5
   10c7c:	000d8d9b          	sext.w	s11,s11
   10c80:	02013683          	ld	a3,32(sp)
   10c84:	020df793          	and	a5,s11,32
   10c88:	00868713          	add	a4,a3,8
   10c8c:	220788e3          	beqz	a5,116bc <_vfprintf_r+0x127c>
   10c90:	0006bd03          	ld	s10,0(a3)
   10c94:	00100793          	li	a5,1
   10c98:	02e13023          	sd	a4,32(sp)
   10c9c:	00000713          	li	a4,0
   10ca0:	0ce107a3          	sb	a4,207(sp)
   10ca4:	fff00713          	li	a4,-1
   10ca8:	2ae30463          	beq	t1,a4,10f50 <_vfprintf_r+0xb10>
   10cac:	f7fdf913          	and	s2,s11,-129
   10cb0:	0009091b          	sext.w	s2,s2
   10cb4:	280d1c63          	bnez	s10,10f4c <_vfprintf_r+0xb0c>
   10cb8:	2e031a63          	bnez	t1,10fac <_vfprintf_r+0xb6c>
   10cbc:	220796e3          	bnez	a5,116e8 <_vfprintf_r+0x12a8>
   10cc0:	001dfd13          	and	s10,s11,1
   10cc4:	17c10b13          	add	s6,sp,380
   10cc8:	240d1ae3          	bnez	s10,1171c <_vfprintf_r+0x12dc>
   10ccc:	0cf14703          	lbu	a4,207(sp)
   10cd0:	000d0813          	mv	a6,s10
   10cd4:	006d5463          	bge	s10,t1,10cdc <_vfprintf_r+0x89c>
   10cd8:	00030813          	mv	a6,t1
   10cdc:	00013c23          	sd	zero,24(sp)
   10ce0:	04013423          	sd	zero,72(sp)
   10ce4:	04013023          	sd	zero,64(sp)
   10ce8:	02013823          	sd	zero,48(sp)
   10cec:	00080c1b          	sext.w	s8,a6
   10cf0:	e60714e3          	bnez	a4,10b58 <_vfprintf_r+0x718>
   10cf4:	98dff06f          	j	10680 <_vfprintf_r+0x240>
   10cf8:	00896913          	or	s2,s2,8
   10cfc:	0004ce03          	lbu	t3,0(s1)
   10d00:	0009091b          	sext.w	s2,s2
   10d04:	8e9ff06f          	j	105ec <_vfprintf_r+0x1ac>
   10d08:	01096913          	or	s2,s2,16
   10d0c:	000a8313          	mv	t1,s5
   10d10:	0009091b          	sext.w	s2,s2
   10d14:	02013683          	ld	a3,32(sp)
   10d18:	02097793          	and	a5,s2,32
   10d1c:	00868713          	add	a4,a3,8
   10d20:	12078ce3          	beqz	a5,11658 <_vfprintf_r+0x1218>
   10d24:	0006b783          	ld	a5,0(a3)
   10d28:	00078d13          	mv	s10,a5
   10d2c:	1407cae3          	bltz	a5,11680 <_vfprintf_r+0x1240>
   10d30:	fff00793          	li	a5,-1
   10d34:	5af30463          	beq	t1,a5,112dc <_vfprintf_r+0xe9c>
   10d38:	f7f97d93          	and	s11,s2,-129
   10d3c:	02e13023          	sd	a4,32(sp)
   10d40:	000d8d9b          	sext.w	s11,s11
   10d44:	5a0d1063          	bnez	s10,112e4 <_vfprintf_r+0xea4>
   10d48:	5a031263          	bnez	t1,112ec <_vfprintf_r+0xeac>
   10d4c:	000d8913          	mv	s2,s11
   10d50:	17c10b13          	add	s6,sp,380
   10d54:	f79ff06f          	j	10ccc <_vfprintf_r+0x88c>
   10d58:	01096913          	or	s2,s2,16
   10d5c:	000a8313          	mv	t1,s5
   10d60:	0009091b          	sext.w	s2,s2
   10d64:	02013683          	ld	a3,32(sp)
   10d68:	02097793          	and	a5,s2,32
   10d6c:	00868713          	add	a4,a3,8
   10d70:	120784e3          	beqz	a5,11698 <_vfprintf_r+0x1258>
   10d74:	0006bd03          	ld	s10,0(a3)
   10d78:	bff97d93          	and	s11,s2,-1025
   10d7c:	000d8d9b          	sext.w	s11,s11
   10d80:	02e13023          	sd	a4,32(sp)
   10d84:	00000793          	li	a5,0
   10d88:	f15ff06f          	j	10c9c <_vfprintf_r+0x85c>
   10d8c:	02096913          	or	s2,s2,32
   10d90:	0004ce03          	lbu	t3,0(s1)
   10d94:	0009091b          	sext.w	s2,s2
   10d98:	855ff06f          	j	105ec <_vfprintf_r+0x1ac>
   10d9c:	02013703          	ld	a4,32(sp)
   10da0:	02097793          	and	a5,s2,32
   10da4:	00073703          	ld	a4,0(a4)
   10da8:	180782e3          	beqz	a5,1172c <_vfprintf_r+0x12ec>
   10dac:	01013783          	ld	a5,16(sp)
   10db0:	00f73023          	sd	a5,0(a4)
   10db4:	02013783          	ld	a5,32(sp)
   10db8:	00048b13          	mv	s6,s1
   10dbc:	00878793          	add	a5,a5,8
   10dc0:	02f13023          	sd	a5,32(sp)
   10dc4:	9ddff06f          	j	107a0 <_vfprintf_r+0x360>
   10dc8:	0004ce03          	lbu	t3,0(s1)
   10dcc:	06c00793          	li	a5,108
   10dd0:	28fe02e3          	beq	t3,a5,11854 <_vfprintf_r+0x1414>
   10dd4:	01096913          	or	s2,s2,16
   10dd8:	0009091b          	sext.w	s2,s2
   10ddc:	811ff06f          	j	105ec <_vfprintf_r+0x1ac>
   10de0:	0004ce03          	lbu	t3,0(s1)
   10de4:	06800793          	li	a5,104
   10de8:	24fe0ce3          	beq	t3,a5,11840 <_vfprintf_r+0x1400>
   10dec:	04096913          	or	s2,s2,64
   10df0:	0009091b          	sext.w	s2,s2
   10df4:	ff8ff06f          	j	105ec <_vfprintf_r+0x1ac>
   10df8:	02013703          	ld	a4,32(sp)
   10dfc:	ffff87b7          	lui	a5,0xffff8
   10e00:	8307c793          	xor	a5,a5,-2000
   10e04:	0cf11823          	sh	a5,208(sp)
   10e08:	00870793          	add	a5,a4,8
   10e0c:	02f13023          	sd	a5,32(sp)
   10e10:	000227b7          	lui	a5,0x22
   10e14:	d4078793          	add	a5,a5,-704 # 21d40 <__clzdi2+0xb4>
   10e18:	00296d93          	or	s11,s2,2
   10e1c:	06f13423          	sd	a5,104(sp)
   10e20:	00073d03          	ld	s10,0(a4)
   10e24:	000a8313          	mv	t1,s5
   10e28:	000d8d9b          	sext.w	s11,s11
   10e2c:	00200793          	li	a5,2
   10e30:	07800c93          	li	s9,120
   10e34:	e69ff06f          	j	10c9c <_vfprintf_r+0x85c>
   10e38:	06500693          	li	a3,101
   10e3c:	b796d6e3          	bge	a3,s9,109a8 <_vfprintf_r+0x568>
   10e40:	0f013503          	ld	a0,240(sp)
   10e44:	0f813583          	ld	a1,248(sp)
   10e48:	00000613          	li	a2,0
   10e4c:	00000693          	li	a3,0
   10e50:	6bc0f0ef          	jal	2050c <__eqtf2>
   10e54:	58051463          	bnez	a0,113dc <_vfprintf_r+0xf9c>
   10e58:	10812783          	lw	a5,264(sp)
   10e5c:	000226b7          	lui	a3,0x22
   10e60:	d6068693          	add	a3,a3,-672 # 21d60 <__clzdi2+0xd4>
   10e64:	0017879b          	addw	a5,a5,1
   10e68:	00d43023          	sd	a3,0(s0)
   10e6c:	001d8d93          	add	s11,s11,1
   10e70:	00100693          	li	a3,1
   10e74:	00d43423          	sd	a3,8(s0)
   10e78:	10f12423          	sw	a5,264(sp)
   10e7c:	0007869b          	sext.w	a3,a5
   10e80:	11b13823          	sd	s11,272(sp)
   10e84:	00700793          	li	a5,7
   10e88:	01040413          	add	s0,s0,16
   10e8c:	48d7cee3          	blt	a5,a3,11b28 <_vfprintf_r+0x16e8>
   10e90:	0d812783          	lw	a5,216(sp)
   10e94:	03813703          	ld	a4,56(sp)
   10e98:	04e7dee3          	bge	a5,a4,116f4 <_vfprintf_r+0x12b4>
   10e9c:	05813683          	ld	a3,88(sp)
   10ea0:	10812783          	lw	a5,264(sp)
   10ea4:	06013603          	ld	a2,96(sp)
   10ea8:	01b68733          	add	a4,a3,s11
   10eac:	0017879b          	addw	a5,a5,1
   10eb0:	00d43423          	sd	a3,8(s0)
   10eb4:	00c43023          	sd	a2,0(s0)
   10eb8:	0007869b          	sext.w	a3,a5
   10ebc:	10f12423          	sw	a5,264(sp)
   10ec0:	10e13823          	sd	a4,272(sp)
   10ec4:	00700793          	li	a5,7
   10ec8:	01040413          	add	s0,s0,16
   10ecc:	1ad7cce3          	blt	a5,a3,11884 <_vfprintf_r+0x1444>
   10ed0:	03813783          	ld	a5,56(sp)
   10ed4:	fff78c9b          	addw	s9,a5,-1
   10ed8:	87905ee3          	blez	s9,10754 <_vfprintf_r+0x314>
   10edc:	00022f37          	lui	t5,0x22
   10ee0:	01000693          	li	a3,16
   10ee4:	10812783          	lw	a5,264(sp)
   10ee8:	f68f0d93          	add	s11,t5,-152 # 21f68 <zeroes.0>
   10eec:	4596dee3          	bge	a3,s9,11b48 <_vfprintf_r+0x1708>
   10ef0:	00013b03          	ld	s6,0(sp)
   10ef4:	01000d13          	li	s10,16
   10ef8:	00700a93          	li	s5,7
   10efc:	00c0006f          	j	10f08 <_vfprintf_r+0xac8>
   10f00:	ff0c8c9b          	addw	s9,s9,-16
   10f04:	459d52e3          	bge	s10,s9,11b48 <_vfprintf_r+0x1708>
   10f08:	0017879b          	addw	a5,a5,1
   10f0c:	01070713          	add	a4,a4,16
   10f10:	01b43023          	sd	s11,0(s0)
   10f14:	01a43423          	sd	s10,8(s0)
   10f18:	10e13823          	sd	a4,272(sp)
   10f1c:	10f12423          	sw	a5,264(sp)
   10f20:	01040413          	add	s0,s0,16
   10f24:	fcfadee3          	bge	s5,a5,10f00 <_vfprintf_r+0xac0>
   10f28:	10010613          	add	a2,sp,256
   10f2c:	000b0593          	mv	a1,s6
   10f30:	00098513          	mv	a0,s3
   10f34:	59c0a0ef          	jal	1b4d0 <__sprint_r>
   10f38:	28051c63          	bnez	a0,111d0 <_vfprintf_r+0xd90>
   10f3c:	11013703          	ld	a4,272(sp)
   10f40:	10812783          	lw	a5,264(sp)
   10f44:	18010413          	add	s0,sp,384
   10f48:	fb9ff06f          	j	10f00 <_vfprintf_r+0xac0>
   10f4c:	00090d93          	mv	s11,s2
   10f50:	00100713          	li	a4,1
   10f54:	38e78863          	beq	a5,a4,112e4 <_vfprintf_r+0xea4>
   10f58:	00200713          	li	a4,2
   10f5c:	06e78463          	beq	a5,a4,10fc4 <_vfprintf_r+0xb84>
   10f60:	17c10a93          	add	s5,sp,380
   10f64:	000a8b13          	mv	s6,s5
   10f68:	007d7713          	and	a4,s10,7
   10f6c:	03070713          	add	a4,a4,48
   10f70:	feeb0fa3          	sb	a4,-1(s6)
   10f74:	003d5d13          	srl	s10,s10,0x3
   10f78:	000b0613          	mv	a2,s6
   10f7c:	fffb0b13          	add	s6,s6,-1
   10f80:	fe0d14e3          	bnez	s10,10f68 <_vfprintf_r+0xb28>
   10f84:	001df593          	and	a1,s11,1
   10f88:	06058263          	beqz	a1,10fec <_vfprintf_r+0xbac>
   10f8c:	03000593          	li	a1,48
   10f90:	04b70e63          	beq	a4,a1,10fec <_vfprintf_r+0xbac>
   10f94:	ffe60613          	add	a2,a2,-2
   10f98:	febb0fa3          	sb	a1,-1(s6)
   10f9c:	40ca8d3b          	subw	s10,s5,a2
   10fa0:	000d8913          	mv	s2,s11
   10fa4:	00060b13          	mv	s6,a2
   10fa8:	d25ff06f          	j	10ccc <_vfprintf_r+0x88c>
   10fac:	00100713          	li	a4,1
   10fb0:	00e79463          	bne	a5,a4,10fb8 <_vfprintf_r+0xb78>
   10fb4:	7040106f          	j	126b8 <_vfprintf_r+0x2278>
   10fb8:	00200713          	li	a4,2
   10fbc:	00090d93          	mv	s11,s2
   10fc0:	fae790e3          	bne	a5,a4,10f60 <_vfprintf_r+0xb20>
   10fc4:	06813703          	ld	a4,104(sp)
   10fc8:	17c10a93          	add	s5,sp,380
   10fcc:	000a8b13          	mv	s6,s5
   10fd0:	00fd7793          	and	a5,s10,15
   10fd4:	00f707b3          	add	a5,a4,a5
   10fd8:	0007c783          	lbu	a5,0(a5)
   10fdc:	004d5d13          	srl	s10,s10,0x4
   10fe0:	fffb0b13          	add	s6,s6,-1
   10fe4:	00fb0023          	sb	a5,0(s6)
   10fe8:	fe0d14e3          	bnez	s10,10fd0 <_vfprintf_r+0xb90>
   10fec:	416a8d3b          	subw	s10,s5,s6
   10ff0:	000d8913          	mv	s2,s11
   10ff4:	cd9ff06f          	j	10ccc <_vfprintf_r+0x88c>
   10ff8:	418a0abb          	subw	s5,s4,s8
   10ffc:	f3505063          	blez	s5,1071c <_vfprintf_r+0x2dc>
   11000:	00022f37          	lui	t5,0x22
   11004:	01000593          	li	a1,16
   11008:	000d8713          	mv	a4,s11
   1100c:	10812603          	lw	a2,264(sp)
   11010:	f68f0d93          	add	s11,t5,-152 # 21f68 <zeroes.0>
   11014:	0955de63          	bge	a1,s5,110b0 <_vfprintf_r+0xc70>
   11018:	08913823          	sd	s1,144(sp)
   1101c:	01000f93          	li	t6,16
   11020:	000a8493          	mv	s1,s5
   11024:	00700b93          	li	s7,7
   11028:	000a0a93          	mv	s5,s4
   1102c:	00090a13          	mv	s4,s2
   11030:	000d8913          	mv	s2,s11
   11034:	000b0d93          	mv	s11,s6
   11038:	00030b13          	mv	s6,t1
   1103c:	00c0006f          	j	11048 <_vfprintf_r+0xc08>
   11040:	ff04849b          	addw	s1,s1,-16
   11044:	049fd863          	bge	t6,s1,11094 <_vfprintf_r+0xc54>
   11048:	0016061b          	addw	a2,a2,1
   1104c:	01070713          	add	a4,a4,16
   11050:	01243023          	sd	s2,0(s0)
   11054:	01f43423          	sd	t6,8(s0)
   11058:	10e13823          	sd	a4,272(sp)
   1105c:	10c12423          	sw	a2,264(sp)
   11060:	01040413          	add	s0,s0,16
   11064:	fccbdee3          	bge	s7,a2,11040 <_vfprintf_r+0xc00>
   11068:	00013583          	ld	a1,0(sp)
   1106c:	10010613          	add	a2,sp,256
   11070:	00098513          	mv	a0,s3
   11074:	45c0a0ef          	jal	1b4d0 <__sprint_r>
   11078:	14051c63          	bnez	a0,111d0 <_vfprintf_r+0xd90>
   1107c:	01000f93          	li	t6,16
   11080:	ff04849b          	addw	s1,s1,-16
   11084:	11013703          	ld	a4,272(sp)
   11088:	10812603          	lw	a2,264(sp)
   1108c:	18010413          	add	s0,sp,384
   11090:	fa9fcce3          	blt	t6,s1,11048 <_vfprintf_r+0xc08>
   11094:	000b0313          	mv	t1,s6
   11098:	000d8b13          	mv	s6,s11
   1109c:	00090d93          	mv	s11,s2
   110a0:	000a0913          	mv	s2,s4
   110a4:	000a8a13          	mv	s4,s5
   110a8:	00048a93          	mv	s5,s1
   110ac:	09013483          	ld	s1,144(sp)
   110b0:	0016059b          	addw	a1,a2,1
   110b4:	00ea8733          	add	a4,s5,a4
   110b8:	01b43023          	sd	s11,0(s0)
   110bc:	01543423          	sd	s5,8(s0)
   110c0:	10e13823          	sd	a4,272(sp)
   110c4:	10b12423          	sw	a1,264(sp)
   110c8:	00700613          	li	a2,7
   110cc:	6eb64463          	blt	a2,a1,117b4 <_vfprintf_r+0x1374>
   110d0:	41a30bbb          	subw	s7,t1,s10
   110d4:	01040413          	add	s0,s0,16
   110d8:	00070d93          	mv	s11,a4
   110dc:	e5705463          	blez	s7,10724 <_vfprintf_r+0x2e4>
   110e0:	00022f37          	lui	t5,0x22
   110e4:	01000593          	li	a1,16
   110e8:	000d8713          	mv	a4,s11
   110ec:	10812603          	lw	a2,264(sp)
   110f0:	f68f0d93          	add	s11,t5,-152 # 21f68 <zeroes.0>
   110f4:	0975de63          	bge	a1,s7,11190 <_vfprintf_r+0xd50>
   110f8:	000b0793          	mv	a5,s6
   110fc:	00813d83          	ld	s11,8(sp)
   11100:	000a0b13          	mv	s6,s4
   11104:	01000893          	li	a7,16
   11108:	00090a13          	mv	s4,s2
   1110c:	00700a93          	li	s5,7
   11110:	00048913          	mv	s2,s1
   11114:	000b8493          	mv	s1,s7
   11118:	00078b93          	mv	s7,a5
   1111c:	00c0006f          	j	11128 <_vfprintf_r+0xce8>
   11120:	ff04849b          	addw	s1,s1,-16
   11124:	0498da63          	bge	a7,s1,11178 <_vfprintf_r+0xd38>
   11128:	00813683          	ld	a3,8(sp)
   1112c:	0016061b          	addw	a2,a2,1
   11130:	01070713          	add	a4,a4,16
   11134:	00d43023          	sd	a3,0(s0)
   11138:	01143423          	sd	a7,8(s0)
   1113c:	10e13823          	sd	a4,272(sp)
   11140:	10c12423          	sw	a2,264(sp)
   11144:	01040413          	add	s0,s0,16
   11148:	fccadce3          	bge	s5,a2,11120 <_vfprintf_r+0xce0>
   1114c:	00013583          	ld	a1,0(sp)
   11150:	10010613          	add	a2,sp,256
   11154:	00098513          	mv	a0,s3
   11158:	3780a0ef          	jal	1b4d0 <__sprint_r>
   1115c:	06051a63          	bnez	a0,111d0 <_vfprintf_r+0xd90>
   11160:	01000893          	li	a7,16
   11164:	ff04849b          	addw	s1,s1,-16
   11168:	11013703          	ld	a4,272(sp)
   1116c:	10812603          	lw	a2,264(sp)
   11170:	18010413          	add	s0,sp,384
   11174:	fa98cae3          	blt	a7,s1,11128 <_vfprintf_r+0xce8>
   11178:	000b8793          	mv	a5,s7
   1117c:	00048b93          	mv	s7,s1
   11180:	00090493          	mv	s1,s2
   11184:	000a0913          	mv	s2,s4
   11188:	000b0a13          	mv	s4,s6
   1118c:	00078b13          	mv	s6,a5
   11190:	0016059b          	addw	a1,a2,1
   11194:	00eb8733          	add	a4,s7,a4
   11198:	01b43023          	sd	s11,0(s0)
   1119c:	01743423          	sd	s7,8(s0)
   111a0:	10e13823          	sd	a4,272(sp)
   111a4:	10b12423          	sw	a1,264(sp)
   111a8:	00700613          	li	a2,7
   111ac:	48b64663          	blt	a2,a1,11638 <_vfprintf_r+0x11f8>
   111b0:	01040413          	add	s0,s0,16
   111b4:	00070d93          	mv	s11,a4
   111b8:	d6cff06f          	j	10724 <_vfprintf_r+0x2e4>
   111bc:	00013583          	ld	a1,0(sp)
   111c0:	10010613          	add	a2,sp,256
   111c4:	00098513          	mv	a0,s3
   111c8:	3080a0ef          	jal	1b4d0 <__sprint_r>
   111cc:	da050a63          	beqz	a0,10780 <_vfprintf_r+0x340>
   111d0:	01813583          	ld	a1,24(sp)
   111d4:	de058063          	beqz	a1,107b4 <_vfprintf_r+0x374>
   111d8:	05013503          	ld	a0,80(sp)
   111dc:	430020ef          	jal	1360c <_free_r>
   111e0:	dd4ff06f          	j	107b4 <_vfprintf_r+0x374>
   111e4:	000228b7          	lui	a7,0x22
   111e8:	01000513          	li	a0,16
   111ec:	11013583          	ld	a1,272(sp)
   111f0:	10812603          	lw	a2,264(sp)
   111f4:	f7888d93          	add	s11,a7,-136 # 21f78 <blanks.1>
   111f8:	08e55c63          	bge	a0,a4,11290 <_vfprintf_r+0xe50>
   111fc:	08913823          	sd	s1,144(sp)
   11200:	00040793          	mv	a5,s0
   11204:	000d8493          	mv	s1,s11
   11208:	01000f13          	li	t5,16
   1120c:	000b0d93          	mv	s11,s6
   11210:	00700393          	li	t2,7
   11214:	00070413          	mv	s0,a4
   11218:	00030b13          	mv	s6,t1
   1121c:	00c0006f          	j	11228 <_vfprintf_r+0xde8>
   11220:	ff04041b          	addw	s0,s0,-16
   11224:	048f5a63          	bge	t5,s0,11278 <_vfprintf_r+0xe38>
   11228:	0016061b          	addw	a2,a2,1
   1122c:	01058593          	add	a1,a1,16
   11230:	0097b023          	sd	s1,0(a5)
   11234:	01e7b423          	sd	t5,8(a5)
   11238:	10b13823          	sd	a1,272(sp)
   1123c:	10c12423          	sw	a2,264(sp)
   11240:	01078793          	add	a5,a5,16
   11244:	fcc3dee3          	bge	t2,a2,11220 <_vfprintf_r+0xde0>
   11248:	00013583          	ld	a1,0(sp)
   1124c:	10010613          	add	a2,sp,256
   11250:	00098513          	mv	a0,s3
   11254:	27c0a0ef          	jal	1b4d0 <__sprint_r>
   11258:	f6051ce3          	bnez	a0,111d0 <_vfprintf_r+0xd90>
   1125c:	01000f13          	li	t5,16
   11260:	ff04041b          	addw	s0,s0,-16
   11264:	11013583          	ld	a1,272(sp)
   11268:	10812603          	lw	a2,264(sp)
   1126c:	18010793          	add	a5,sp,384
   11270:	00700393          	li	t2,7
   11274:	fa8f4ae3          	blt	t5,s0,11228 <_vfprintf_r+0xde8>
   11278:	000b0313          	mv	t1,s6
   1127c:	000d8b13          	mv	s6,s11
   11280:	00048d93          	mv	s11,s1
   11284:	09013483          	ld	s1,144(sp)
   11288:	00040713          	mv	a4,s0
   1128c:	00078413          	mv	s0,a5
   11290:	00b705b3          	add	a1,a4,a1
   11294:	0016061b          	addw	a2,a2,1
   11298:	00e43423          	sd	a4,8(s0)
   1129c:	01b43023          	sd	s11,0(s0)
   112a0:	10b13823          	sd	a1,272(sp)
   112a4:	10c12423          	sw	a2,264(sp)
   112a8:	0006059b          	sext.w	a1,a2
   112ac:	00700713          	li	a4,7
   112b0:	01040413          	add	s0,s0,16
   112b4:	beb75463          	bge	a4,a1,1069c <_vfprintf_r+0x25c>
   112b8:	00013583          	ld	a1,0(sp)
   112bc:	10010613          	add	a2,sp,256
   112c0:	00098513          	mv	a0,s3
   112c4:	08613823          	sd	t1,144(sp)
   112c8:	2080a0ef          	jal	1b4d0 <__sprint_r>
   112cc:	f00512e3          	bnez	a0,111d0 <_vfprintf_r+0xd90>
   112d0:	09013303          	ld	t1,144(sp)
   112d4:	18010413          	add	s0,sp,384
   112d8:	bc4ff06f          	j	1069c <_vfprintf_r+0x25c>
   112dc:	00090d93          	mv	s11,s2
   112e0:	02e13023          	sd	a4,32(sp)
   112e4:	00900793          	li	a5,9
   112e8:	6ba7ea63          	bltu	a5,s10,1199c <_vfprintf_r+0x155c>
   112ec:	030d0d1b          	addw	s10,s10,48
   112f0:	17a10da3          	sb	s10,379(sp)
   112f4:	000d8913          	mv	s2,s11
   112f8:	00100d13          	li	s10,1
   112fc:	17b10b13          	add	s6,sp,379
   11300:	9cdff06f          	j	10ccc <_vfprintf_r+0x88c>
   11304:	00013583          	ld	a1,0(sp)
   11308:	10010613          	add	a2,sp,256
   1130c:	00098513          	mv	a0,s3
   11310:	08613823          	sd	t1,144(sp)
   11314:	1bc0a0ef          	jal	1b4d0 <__sprint_r>
   11318:	ea051ce3          	bnez	a0,111d0 <_vfprintf_r+0xd90>
   1131c:	11013d83          	ld	s11,272(sp)
   11320:	09013303          	ld	t1,144(sp)
   11324:	18010413          	add	s0,sp,384
   11328:	becff06f          	j	10714 <_vfprintf_r+0x2d4>
   1132c:	000228b7          	lui	a7,0x22
   11330:	01000693          	li	a3,16
   11334:	10812783          	lw	a5,264(sp)
   11338:	f7888d93          	add	s11,a7,-136 # 21f78 <blanks.1>
   1133c:	0726d263          	bge	a3,s2,113a0 <_vfprintf_r+0xf60>
   11340:	00013a83          	ld	s5,0(sp)
   11344:	01000c93          	li	s9,16
   11348:	00700d13          	li	s10,7
   1134c:	00c0006f          	j	11358 <_vfprintf_r+0xf18>
   11350:	ff09091b          	addw	s2,s2,-16
   11354:	052cd663          	bge	s9,s2,113a0 <_vfprintf_r+0xf60>
   11358:	0017879b          	addw	a5,a5,1
   1135c:	01070713          	add	a4,a4,16
   11360:	01b43023          	sd	s11,0(s0)
   11364:	01943423          	sd	s9,8(s0)
   11368:	10e13823          	sd	a4,272(sp)
   1136c:	10f12423          	sw	a5,264(sp)
   11370:	01040413          	add	s0,s0,16
   11374:	fcfd5ee3          	bge	s10,a5,11350 <_vfprintf_r+0xf10>
   11378:	10010613          	add	a2,sp,256
   1137c:	000a8593          	mv	a1,s5
   11380:	00098513          	mv	a0,s3
   11384:	14c0a0ef          	jal	1b4d0 <__sprint_r>
   11388:	e40514e3          	bnez	a0,111d0 <_vfprintf_r+0xd90>
   1138c:	ff09091b          	addw	s2,s2,-16
   11390:	11013703          	ld	a4,272(sp)
   11394:	10812783          	lw	a5,264(sp)
   11398:	18010413          	add	s0,sp,384
   1139c:	fb2ccee3          	blt	s9,s2,11358 <_vfprintf_r+0xf18>
   113a0:	0017869b          	addw	a3,a5,1
   113a4:	01270733          	add	a4,a4,s2
   113a8:	01b43023          	sd	s11,0(s0)
   113ac:	01243423          	sd	s2,8(s0)
   113b0:	10e13823          	sd	a4,272(sp)
   113b4:	10d12423          	sw	a3,264(sp)
   113b8:	00700793          	li	a5,7
   113bc:	bad7d463          	bge	a5,a3,10764 <_vfprintf_r+0x324>
   113c0:	00013583          	ld	a1,0(sp)
   113c4:	10010613          	add	a2,sp,256
   113c8:	00098513          	mv	a0,s3
   113cc:	1040a0ef          	jal	1b4d0 <__sprint_r>
   113d0:	e00510e3          	bnez	a0,111d0 <_vfprintf_r+0xd90>
   113d4:	11013703          	ld	a4,272(sp)
   113d8:	b8cff06f          	j	10764 <_vfprintf_r+0x324>
   113dc:	0d812603          	lw	a2,216(sp)
   113e0:	6ac05463          	blez	a2,11a88 <_vfprintf_r+0x1648>
   113e4:	03813783          	ld	a5,56(sp)
   113e8:	03013703          	ld	a4,48(sp)
   113ec:	00fb0ab3          	add	s5,s6,a5
   113f0:	00070693          	mv	a3,a4
   113f4:	3ae7c863          	blt	a5,a4,117a4 <_vfprintf_r+0x1364>
   113f8:	00068c9b          	sext.w	s9,a3
   113fc:	03905663          	blez	s9,11428 <_vfprintf_r+0xfe8>
   11400:	10812603          	lw	a2,264(sp)
   11404:	019d8db3          	add	s11,s11,s9
   11408:	01643023          	sd	s6,0(s0)
   1140c:	0016059b          	addw	a1,a2,1
   11410:	01943423          	sd	s9,8(s0)
   11414:	11b13823          	sd	s11,272(sp)
   11418:	10b12423          	sw	a1,264(sp)
   1141c:	00700613          	li	a2,7
   11420:	01040413          	add	s0,s0,16
   11424:	50b646e3          	blt	a2,a1,12130 <_vfprintf_r+0x1cf0>
   11428:	fffcc613          	not	a2,s9
   1142c:	03013783          	ld	a5,48(sp)
   11430:	43f65613          	sra	a2,a2,0x3f
   11434:	00ccf6b3          	and	a3,s9,a2
   11438:	40d78cbb          	subw	s9,a5,a3
   1143c:	49904663          	bgtz	s9,118c8 <_vfprintf_r+0x1488>
   11440:	03013783          	ld	a5,48(sp)
   11444:	40097693          	and	a3,s2,1024
   11448:	00fb0b33          	add	s6,s6,a5
   1144c:	0a069ae3          	bnez	a3,11d00 <_vfprintf_r+0x18c0>
   11450:	0d812683          	lw	a3,216(sp)
   11454:	03813783          	ld	a5,56(sp)
   11458:	00f6c663          	blt	a3,a5,11464 <_vfprintf_r+0x1024>
   1145c:	00197613          	and	a2,s2,1
   11460:	4e060ce3          	beqz	a2,12158 <_vfprintf_r+0x1d18>
   11464:	10812603          	lw	a2,264(sp)
   11468:	05813783          	ld	a5,88(sp)
   1146c:	06013583          	ld	a1,96(sp)
   11470:	01040413          	add	s0,s0,16
   11474:	01b78733          	add	a4,a5,s11
   11478:	feb43823          	sd	a1,-16(s0)
   1147c:	0016059b          	addw	a1,a2,1
   11480:	fef43c23          	sd	a5,-8(s0)
   11484:	10e13823          	sd	a4,272(sp)
   11488:	10b12423          	sw	a1,264(sp)
   1148c:	00700613          	li	a2,7
   11490:	00b65463          	bge	a2,a1,11498 <_vfprintf_r+0x1058>
   11494:	1380106f          	j	125cc <_vfprintf_r+0x218c>
   11498:	03813783          	ld	a5,56(sp)
   1149c:	416a8cb3          	sub	s9,s5,s6
   114a0:	000c859b          	sext.w	a1,s9
   114a4:	40d7863b          	subw	a2,a5,a3
   114a8:	00b65463          	bge	a2,a1,114b0 <_vfprintf_r+0x1070>
   114ac:	00060c93          	mv	s9,a2
   114b0:	000c8c9b          	sext.w	s9,s9
   114b4:	03905863          	blez	s9,114e4 <_vfprintf_r+0x10a4>
   114b8:	10812683          	lw	a3,264(sp)
   114bc:	01970733          	add	a4,a4,s9
   114c0:	01643023          	sd	s6,0(s0)
   114c4:	0016869b          	addw	a3,a3,1
   114c8:	01943423          	sd	s9,8(s0)
   114cc:	10e13823          	sd	a4,272(sp)
   114d0:	10d12423          	sw	a3,264(sp)
   114d4:	00700793          	li	a5,7
   114d8:	01040413          	add	s0,s0,16
   114dc:	00d7d463          	bge	a5,a3,114e4 <_vfprintf_r+0x10a4>
   114e0:	19c0106f          	j	1267c <_vfprintf_r+0x223c>
   114e4:	fffcc793          	not	a5,s9
   114e8:	43f7d793          	sra	a5,a5,0x3f
   114ec:	00fcfcb3          	and	s9,s9,a5
   114f0:	41960cbb          	subw	s9,a2,s9
   114f4:	a7905063          	blez	s9,10754 <_vfprintf_r+0x314>
   114f8:	00022f37          	lui	t5,0x22
   114fc:	01000693          	li	a3,16
   11500:	10812783          	lw	a5,264(sp)
   11504:	f68f0d93          	add	s11,t5,-152 # 21f68 <zeroes.0>
   11508:	6596d063          	bge	a3,s9,11b48 <_vfprintf_r+0x1708>
   1150c:	00013b03          	ld	s6,0(sp)
   11510:	01000d13          	li	s10,16
   11514:	00700a93          	li	s5,7
   11518:	00c0006f          	j	11524 <_vfprintf_r+0x10e4>
   1151c:	ff0c8c9b          	addw	s9,s9,-16
   11520:	639d5463          	bge	s10,s9,11b48 <_vfprintf_r+0x1708>
   11524:	0017879b          	addw	a5,a5,1
   11528:	01070713          	add	a4,a4,16
   1152c:	01b43023          	sd	s11,0(s0)
   11530:	01a43423          	sd	s10,8(s0)
   11534:	10e13823          	sd	a4,272(sp)
   11538:	10f12423          	sw	a5,264(sp)
   1153c:	01040413          	add	s0,s0,16
   11540:	fcfadee3          	bge	s5,a5,1151c <_vfprintf_r+0x10dc>
   11544:	10010613          	add	a2,sp,256
   11548:	000b0593          	mv	a1,s6
   1154c:	00098513          	mv	a0,s3
   11550:	781090ef          	jal	1b4d0 <__sprint_r>
   11554:	c6051ee3          	bnez	a0,111d0 <_vfprintf_r+0xd90>
   11558:	11013703          	ld	a4,272(sp)
   1155c:	10812783          	lw	a5,264(sp)
   11560:	18010413          	add	s0,sp,384
   11564:	fb9ff06f          	j	1151c <_vfprintf_r+0x10dc>
   11568:	00197613          	and	a2,s2,1
   1156c:	c4061663          	bnez	a2,109b8 <_vfprintf_r+0x578>
   11570:	10812603          	lw	a2,264(sp)
   11574:	001d8d13          	add	s10,s11,1
   11578:	01643023          	sd	s6,0(s0)
   1157c:	0016079b          	addw	a5,a2,1
   11580:	00d43423          	sd	a3,8(s0)
   11584:	10f12423          	sw	a5,264(sp)
   11588:	0007841b          	sext.w	s0,a5
   1158c:	11a13823          	sd	s10,272(sp)
   11590:	00700793          	li	a5,7
   11594:	cc87d263          	bge	a5,s0,10a58 <_vfprintf_r+0x618>
   11598:	00013583          	ld	a1,0(sp)
   1159c:	10010613          	add	a2,sp,256
   115a0:	00098513          	mv	a0,s3
   115a4:	72d090ef          	jal	1b4d0 <__sprint_r>
   115a8:	c20514e3          	bnez	a0,111d0 <_vfprintf_r+0xd90>
   115ac:	11013d03          	ld	s10,272(sp)
   115b0:	10812403          	lw	s0,264(sp)
   115b4:	18010c93          	add	s9,sp,384
   115b8:	ca0ff06f          	j	10a58 <_vfprintf_r+0x618>
   115bc:	03813703          	ld	a4,56(sp)
   115c0:	00100793          	li	a5,1
   115c4:	c8e7da63          	bge	a5,a4,10a58 <_vfprintf_r+0x618>
   115c8:	00022f37          	lui	t5,0x22
   115cc:	01100793          	li	a5,17
   115d0:	f68f0d93          	add	s11,t5,-152 # 21f68 <zeroes.0>
   115d4:	66e7d463          	bge	a5,a4,11c3c <_vfprintf_r+0x17fc>
   115d8:	00013b83          	ld	s7,0(sp)
   115dc:	01000713          	li	a4,16
   115e0:	00700b13          	li	s6,7
   115e4:	00c0006f          	j	115f0 <_vfprintf_r+0x11b0>
   115e8:	ff0a8a9b          	addw	s5,s5,-16
   115ec:	65575863          	bge	a4,s5,11c3c <_vfprintf_r+0x17fc>
   115f0:	0014041b          	addw	s0,s0,1
   115f4:	010d0d13          	add	s10,s10,16
   115f8:	01bcb023          	sd	s11,0(s9)
   115fc:	00ecb423          	sd	a4,8(s9)
   11600:	11a13823          	sd	s10,272(sp)
   11604:	10812423          	sw	s0,264(sp)
   11608:	010c8c93          	add	s9,s9,16
   1160c:	fc8b5ee3          	bge	s6,s0,115e8 <_vfprintf_r+0x11a8>
   11610:	10010613          	add	a2,sp,256
   11614:	000b8593          	mv	a1,s7
   11618:	00098513          	mv	a0,s3
   1161c:	6b5090ef          	jal	1b4d0 <__sprint_r>
   11620:	ba0518e3          	bnez	a0,111d0 <_vfprintf_r+0xd90>
   11624:	11013d03          	ld	s10,272(sp)
   11628:	10812403          	lw	s0,264(sp)
   1162c:	18010c93          	add	s9,sp,384
   11630:	01000713          	li	a4,16
   11634:	fb5ff06f          	j	115e8 <_vfprintf_r+0x11a8>
   11638:	00013583          	ld	a1,0(sp)
   1163c:	10010613          	add	a2,sp,256
   11640:	00098513          	mv	a0,s3
   11644:	68d090ef          	jal	1b4d0 <__sprint_r>
   11648:	b80514e3          	bnez	a0,111d0 <_vfprintf_r+0xd90>
   1164c:	11013d83          	ld	s11,272(sp)
   11650:	18010413          	add	s0,sp,384
   11654:	8d0ff06f          	j	10724 <_vfprintf_r+0x2e4>
   11658:	01097793          	and	a5,s2,16
   1165c:	12079c63          	bnez	a5,11794 <_vfprintf_r+0x1354>
   11660:	02013683          	ld	a3,32(sp)
   11664:	04097793          	and	a5,s2,64
   11668:	0006ad03          	lw	s10,0(a3)
   1166c:	5e078c63          	beqz	a5,11c64 <_vfprintf_r+0x1824>
   11670:	010d1d1b          	sllw	s10,s10,0x10
   11674:	410d5d1b          	sraw	s10,s10,0x10
   11678:	000d0793          	mv	a5,s10
   1167c:	ea07da63          	bgez	a5,10d30 <_vfprintf_r+0x8f0>
   11680:	02e13023          	sd	a4,32(sp)
   11684:	41a00d33          	neg	s10,s10
   11688:	00090d93          	mv	s11,s2
   1168c:	02d00713          	li	a4,45
   11690:	00100793          	li	a5,1
   11694:	e0cff06f          	j	10ca0 <_vfprintf_r+0x860>
   11698:	01097793          	and	a5,s2,16
   1169c:	0e079663          	bnez	a5,11788 <_vfprintf_r+0x1348>
   116a0:	02013683          	ld	a3,32(sp)
   116a4:	04097793          	and	a5,s2,64
   116a8:	0006ad03          	lw	s10,0(a3)
   116ac:	5e078c63          	beqz	a5,11ca4 <_vfprintf_r+0x1864>
   116b0:	030d1d13          	sll	s10,s10,0x30
   116b4:	030d5d13          	srl	s10,s10,0x30
   116b8:	ec0ff06f          	j	10d78 <_vfprintf_r+0x938>
   116bc:	010df793          	and	a5,s11,16
   116c0:	0a079a63          	bnez	a5,11774 <_vfprintf_r+0x1334>
   116c4:	02013683          	ld	a3,32(sp)
   116c8:	040df793          	and	a5,s11,64
   116cc:	0006ad03          	lw	s10,0(a3)
   116d0:	5a078e63          	beqz	a5,11c8c <_vfprintf_r+0x184c>
   116d4:	030d1d13          	sll	s10,s10,0x30
   116d8:	030d5d13          	srl	s10,s10,0x30
   116dc:	02e13023          	sd	a4,32(sp)
   116e0:	00100793          	li	a5,1
   116e4:	db8ff06f          	j	10c9c <_vfprintf_r+0x85c>
   116e8:	00000d13          	li	s10,0
   116ec:	17c10b13          	add	s6,sp,380
   116f0:	ddcff06f          	j	10ccc <_vfprintf_r+0x88c>
   116f4:	00197793          	and	a5,s2,1
   116f8:	000d8713          	mv	a4,s11
   116fc:	00079463          	bnez	a5,11704 <_vfprintf_r+0x12c4>
   11700:	854ff06f          	j	10754 <_vfprintf_r+0x314>
   11704:	f98ff06f          	j	10e9c <_vfprintf_r+0xa5c>
   11708:	000a8313          	mv	t1,s5
   1170c:	e08ff06f          	j	10d14 <_vfprintf_r+0x8d4>
   11710:	0004ce03          	lbu	t3,0(s1)
   11714:	02f13023          	sd	a5,32(sp)
   11718:	ed5fe06f          	j	105ec <_vfprintf_r+0x1ac>
   1171c:	03000793          	li	a5,48
   11720:	16f10da3          	sb	a5,379(sp)
   11724:	17b10b13          	add	s6,sp,379
   11728:	da4ff06f          	j	10ccc <_vfprintf_r+0x88c>
   1172c:	01097793          	and	a5,s2,16
   11730:	e6079e63          	bnez	a5,10dac <_vfprintf_r+0x96c>
   11734:	04097793          	and	a5,s2,64
   11738:	240796e3          	bnez	a5,12184 <_vfprintf_r+0x1d44>
   1173c:	20097913          	and	s2,s2,512
   11740:	01013783          	ld	a5,16(sp)
   11744:	00091463          	bnez	s2,1174c <_vfprintf_r+0x130c>
   11748:	1d40106f          	j	1291c <_vfprintf_r+0x24dc>
   1174c:	00f70023          	sb	a5,0(a4)
   11750:	e64ff06f          	j	10db4 <_vfprintf_r+0x974>
   11754:	02013783          	ld	a5,32(sp)
   11758:	00f78a93          	add	s5,a5,15
   1175c:	ff0afa93          	and	s5,s5,-16
   11760:	010a8793          	add	a5,s5,16
   11764:	000ab703          	ld	a4,0(s5)
   11768:	008ab583          	ld	a1,8(s5)
   1176c:	02f13023          	sd	a5,32(sp)
   11770:	950ff06f          	j	108c0 <_vfprintf_r+0x480>
   11774:	02013783          	ld	a5,32(sp)
   11778:	02e13023          	sd	a4,32(sp)
   1177c:	0007bd03          	ld	s10,0(a5)
   11780:	00100793          	li	a5,1
   11784:	d18ff06f          	j	10c9c <_vfprintf_r+0x85c>
   11788:	02013783          	ld	a5,32(sp)
   1178c:	0007bd03          	ld	s10,0(a5)
   11790:	de8ff06f          	j	10d78 <_vfprintf_r+0x938>
   11794:	02013783          	ld	a5,32(sp)
   11798:	0007b783          	ld	a5,0(a5)
   1179c:	00078d13          	mv	s10,a5
   117a0:	d8cff06f          	j	10d2c <_vfprintf_r+0x8ec>
   117a4:	00078693          	mv	a3,a5
   117a8:	00068c9b          	sext.w	s9,a3
   117ac:	c5904ae3          	bgtz	s9,11400 <_vfprintf_r+0xfc0>
   117b0:	c79ff06f          	j	11428 <_vfprintf_r+0xfe8>
   117b4:	00013583          	ld	a1,0(sp)
   117b8:	10010613          	add	a2,sp,256
   117bc:	00098513          	mv	a0,s3
   117c0:	08613823          	sd	t1,144(sp)
   117c4:	50d090ef          	jal	1b4d0 <__sprint_r>
   117c8:	a00514e3          	bnez	a0,111d0 <_vfprintf_r+0xd90>
   117cc:	11013d83          	ld	s11,272(sp)
   117d0:	09013303          	ld	t1,144(sp)
   117d4:	18010413          	add	s0,sp,384
   117d8:	f45fe06f          	j	1071c <_vfprintf_r+0x2dc>
   117dc:	000227b7          	lui	a5,0x22
   117e0:	d2878793          	add	a5,a5,-728 # 21d28 <__clzdi2+0x9c>
   117e4:	000a8313          	mv	t1,s5
   117e8:	06f13423          	sd	a5,104(sp)
   117ec:	02013683          	ld	a3,32(sp)
   117f0:	02097793          	and	a5,s2,32
   117f4:	00868713          	add	a4,a3,8
   117f8:	14078463          	beqz	a5,11940 <_vfprintf_r+0x1500>
   117fc:	0006bd03          	ld	s10,0(a3)
   11800:	00197793          	and	a5,s2,1
   11804:	00078e63          	beqz	a5,11820 <_vfprintf_r+0x13e0>
   11808:	000d0c63          	beqz	s10,11820 <_vfprintf_r+0x13e0>
   1180c:	00296913          	or	s2,s2,2
   11810:	03000793          	li	a5,48
   11814:	0cf10823          	sb	a5,208(sp)
   11818:	0d9108a3          	sb	s9,209(sp)
   1181c:	0009091b          	sext.w	s2,s2
   11820:	bff97d93          	and	s11,s2,-1025
   11824:	000d8d9b          	sext.w	s11,s11
   11828:	02e13023          	sd	a4,32(sp)
   1182c:	00200793          	li	a5,2
   11830:	c6cff06f          	j	10c9c <_vfprintf_r+0x85c>
   11834:	000a8313          	mv	t1,s5
   11838:	00090d93          	mv	s11,s2
   1183c:	c44ff06f          	j	10c80 <_vfprintf_r+0x840>
   11840:	20096913          	or	s2,s2,512
   11844:	0014ce03          	lbu	t3,1(s1)
   11848:	0009091b          	sext.w	s2,s2
   1184c:	00148493          	add	s1,s1,1
   11850:	d9dfe06f          	j	105ec <_vfprintf_r+0x1ac>
   11854:	02096913          	or	s2,s2,32
   11858:	0014ce03          	lbu	t3,1(s1)
   1185c:	0009091b          	sext.w	s2,s2
   11860:	00148493          	add	s1,s1,1
   11864:	d89fe06f          	j	105ec <_vfprintf_r+0x1ac>
   11868:	000a8313          	mv	t1,s5
   1186c:	cf8ff06f          	j	10d64 <_vfprintf_r+0x924>
   11870:	000227b7          	lui	a5,0x22
   11874:	d4078793          	add	a5,a5,-704 # 21d40 <__clzdi2+0xb4>
   11878:	000a8313          	mv	t1,s5
   1187c:	06f13423          	sd	a5,104(sp)
   11880:	f6dff06f          	j	117ec <_vfprintf_r+0x13ac>
   11884:	00013583          	ld	a1,0(sp)
   11888:	10010613          	add	a2,sp,256
   1188c:	00098513          	mv	a0,s3
   11890:	441090ef          	jal	1b4d0 <__sprint_r>
   11894:	92051ee3          	bnez	a0,111d0 <_vfprintf_r+0xd90>
   11898:	11013703          	ld	a4,272(sp)
   1189c:	18010413          	add	s0,sp,384
   118a0:	e30ff06f          	j	10ed0 <_vfprintf_r+0xa90>
   118a4:	00600793          	li	a5,6
   118a8:	00030693          	mv	a3,t1
   118ac:	0a67e2e3          	bltu	a5,t1,12150 <_vfprintf_r+0x1d10>
   118b0:	00068d1b          	sext.w	s10,a3
   118b4:	000227b7          	lui	a5,0x22
   118b8:	000d0c13          	mv	s8,s10
   118bc:	03513023          	sd	s5,32(sp)
   118c0:	d5878b13          	add	s6,a5,-680 # 21d58 <__clzdi2+0xcc>
   118c4:	da9fe06f          	j	1066c <_vfprintf_r+0x22c>
   118c8:	00022f37          	lui	t5,0x22
   118cc:	01000593          	li	a1,16
   118d0:	000d8713          	mv	a4,s11
   118d4:	10812603          	lw	a2,264(sp)
   118d8:	f68f0d93          	add	s11,t5,-152 # 21f68 <zeroes.0>
   118dc:	3f95dc63          	bge	a1,s9,11cd4 <_vfprintf_r+0x1894>
   118e0:	00013b83          	ld	s7,0(sp)
   118e4:	01000893          	li	a7,16
   118e8:	00700d13          	li	s10,7
   118ec:	00c0006f          	j	118f8 <_vfprintf_r+0x14b8>
   118f0:	ff0c8c9b          	addw	s9,s9,-16
   118f4:	3f98d063          	bge	a7,s9,11cd4 <_vfprintf_r+0x1894>
   118f8:	0016061b          	addw	a2,a2,1
   118fc:	01070713          	add	a4,a4,16
   11900:	01b43023          	sd	s11,0(s0)
   11904:	01143423          	sd	a7,8(s0)
   11908:	10e13823          	sd	a4,272(sp)
   1190c:	10c12423          	sw	a2,264(sp)
   11910:	01040413          	add	s0,s0,16
   11914:	fccd5ee3          	bge	s10,a2,118f0 <_vfprintf_r+0x14b0>
   11918:	10010613          	add	a2,sp,256
   1191c:	000b8593          	mv	a1,s7
   11920:	00098513          	mv	a0,s3
   11924:	3ad090ef          	jal	1b4d0 <__sprint_r>
   11928:	8a0514e3          	bnez	a0,111d0 <_vfprintf_r+0xd90>
   1192c:	11013703          	ld	a4,272(sp)
   11930:	10812603          	lw	a2,264(sp)
   11934:	18010413          	add	s0,sp,384
   11938:	01000893          	li	a7,16
   1193c:	fb5ff06f          	j	118f0 <_vfprintf_r+0x14b0>
   11940:	01097793          	and	a5,s2,16
   11944:	1c078463          	beqz	a5,11b0c <_vfprintf_r+0x16cc>
   11948:	02013783          	ld	a5,32(sp)
   1194c:	0007bd03          	ld	s10,0(a5)
   11950:	eb1ff06f          	j	11800 <_vfprintf_r+0x13c0>
   11954:	00013583          	ld	a1,0(sp)
   11958:	10010613          	add	a2,sp,256
   1195c:	00098513          	mv	a0,s3
   11960:	371090ef          	jal	1b4d0 <__sprint_r>
   11964:	860516e3          	bnez	a0,111d0 <_vfprintf_r+0xd90>
   11968:	11013703          	ld	a4,272(sp)
   1196c:	10812683          	lw	a3,264(sp)
   11970:	18010c93          	add	s9,sp,384
   11974:	870ff06f          	j	109e4 <_vfprintf_r+0x5a4>
   11978:	00013583          	ld	a1,0(sp)
   1197c:	10010613          	add	a2,sp,256
   11980:	00098513          	mv	a0,s3
   11984:	34d090ef          	jal	1b4d0 <__sprint_r>
   11988:	840514e3          	bnez	a0,111d0 <_vfprintf_r+0xd90>
   1198c:	11013d03          	ld	s10,272(sp)
   11990:	10812403          	lw	s0,264(sp)
   11994:	18010c93          	add	s9,sp,384
   11998:	878ff06f          	j	10a10 <_vfprintf_r+0x5d0>
   1199c:	17c10a93          	add	s5,sp,380
   119a0:	00913c23          	sd	s1,24(sp)
   119a4:	07813483          	ld	s1,120(sp)
   119a8:	400df913          	and	s2,s11,1024
   119ac:	000a8b13          	mv	s6,s5
   119b0:	00000793          	li	a5,0
   119b4:	04813023          	sd	s0,64(sp)
   119b8:	00098a93          	mv	s5,s3
   119bc:	00090413          	mv	s0,s2
   119c0:	00900b93          	li	s7,9
   119c4:	0ff00c13          	li	s8,255
   119c8:	02613823          	sd	t1,48(sp)
   119cc:	00078913          	mv	s2,a5
   119d0:	000b0993          	mv	s3,s6
   119d4:	00a00593          	li	a1,10
   119d8:	000d0513          	mv	a0,s10
   119dc:	240100ef          	jal	21c1c <__umoddi3>
   119e0:	0305051b          	addw	a0,a0,48
   119e4:	fea98fa3          	sb	a0,-1(s3)
   119e8:	0019091b          	addw	s2,s2,1
   119ec:	fff98993          	add	s3,s3,-1
   119f0:	00040663          	beqz	s0,119fc <_vfprintf_r+0x15bc>
   119f4:	0004c703          	lbu	a4,0(s1)
   119f8:	04e90663          	beq	s2,a4,11a44 <_vfprintf_r+0x1604>
   119fc:	00a00593          	li	a1,10
   11a00:	000d0513          	mv	a0,s10
   11a04:	1d0100ef          	jal	21bd4 <__hidden___udivdi3>
   11a08:	01abf663          	bgeu	s7,s10,11a14 <_vfprintf_r+0x15d4>
   11a0c:	00050d13          	mv	s10,a0
   11a10:	fc5ff06f          	j	119d4 <_vfprintf_r+0x1594>
   11a14:	000b0793          	mv	a5,s6
   11a18:	00098b13          	mv	s6,s3
   11a1c:	000a8993          	mv	s3,s5
   11a20:	00078a93          	mv	s5,a5
   11a24:	03213c23          	sd	s2,56(sp)
   11a28:	06913c23          	sd	s1,120(sp)
   11a2c:	03013303          	ld	t1,48(sp)
   11a30:	01813483          	ld	s1,24(sp)
   11a34:	04013403          	ld	s0,64(sp)
   11a38:	416a8d3b          	subw	s10,s5,s6
   11a3c:	000d8913          	mv	s2,s11
   11a40:	a8cff06f          	j	10ccc <_vfprintf_r+0x88c>
   11a44:	fb870ce3          	beq	a4,s8,119fc <_vfprintf_r+0x15bc>
   11a48:	fdabf6e3          	bgeu	s7,s10,11a14 <_vfprintf_r+0x15d4>
   11a4c:	08013783          	ld	a5,128(sp)
   11a50:	08813583          	ld	a1,136(sp)
   11a54:	00000913          	li	s2,0
   11a58:	40f989b3          	sub	s3,s3,a5
   11a5c:	00078613          	mv	a2,a5
   11a60:	00098513          	mv	a0,s3
   11a64:	300070ef          	jal	18d64 <strncpy>
   11a68:	0014c703          	lbu	a4,1(s1)
   11a6c:	000d0513          	mv	a0,s10
   11a70:	00a00593          	li	a1,10
   11a74:	00e03733          	snez	a4,a4
   11a78:	00e484b3          	add	s1,s1,a4
   11a7c:	158100ef          	jal	21bd4 <__hidden___udivdi3>
   11a80:	00050d13          	mv	s10,a0
   11a84:	f51ff06f          	j	119d4 <_vfprintf_r+0x1594>
   11a88:	10812683          	lw	a3,264(sp)
   11a8c:	000225b7          	lui	a1,0x22
   11a90:	d6058593          	add	a1,a1,-672 # 21d60 <__clzdi2+0xd4>
   11a94:	0016869b          	addw	a3,a3,1
   11a98:	00b43023          	sd	a1,0(s0)
   11a9c:	001d8713          	add	a4,s11,1
   11aa0:	00100593          	li	a1,1
   11aa4:	00b43423          	sd	a1,8(s0)
   11aa8:	10d12423          	sw	a3,264(sp)
   11aac:	0006859b          	sext.w	a1,a3
   11ab0:	10e13823          	sd	a4,272(sp)
   11ab4:	00700693          	li	a3,7
   11ab8:	01040413          	add	s0,s0,16
   11abc:	44b6ce63          	blt	a3,a1,11f18 <_vfprintf_r+0x1ad8>
   11ac0:	10061663          	bnez	a2,11bcc <_vfprintf_r+0x178c>
   11ac4:	03813783          	ld	a5,56(sp)
   11ac8:	00197693          	and	a3,s2,1
   11acc:	00d7e6b3          	or	a3,a5,a3
   11ad0:	00069463          	bnez	a3,11ad8 <_vfprintf_r+0x1698>
   11ad4:	c81fe06f          	j	10754 <_vfprintf_r+0x314>
   11ad8:	10812603          	lw	a2,264(sp)
   11adc:	05813783          	ld	a5,88(sp)
   11ae0:	06013683          	ld	a3,96(sp)
   11ae4:	00e78733          	add	a4,a5,a4
   11ae8:	00d43023          	sd	a3,0(s0)
   11aec:	0016069b          	addw	a3,a2,1
   11af0:	00f43423          	sd	a5,8(s0)
   11af4:	10e13823          	sd	a4,272(sp)
   11af8:	10d12423          	sw	a3,264(sp)
   11afc:	00700613          	li	a2,7
   11b00:	6cd64e63          	blt	a2,a3,121dc <_vfprintf_r+0x1d9c>
   11b04:	01040413          	add	s0,s0,16
   11b08:	0f80006f          	j	11c00 <_vfprintf_r+0x17c0>
   11b0c:	02013683          	ld	a3,32(sp)
   11b10:	04097793          	and	a5,s2,64
   11b14:	0006ad03          	lw	s10,0(a3)
   11b18:	16078263          	beqz	a5,11c7c <_vfprintf_r+0x183c>
   11b1c:	030d1d13          	sll	s10,s10,0x30
   11b20:	030d5d13          	srl	s10,s10,0x30
   11b24:	cddff06f          	j	11800 <_vfprintf_r+0x13c0>
   11b28:	00013583          	ld	a1,0(sp)
   11b2c:	10010613          	add	a2,sp,256
   11b30:	00098513          	mv	a0,s3
   11b34:	19d090ef          	jal	1b4d0 <__sprint_r>
   11b38:	e8051c63          	bnez	a0,111d0 <_vfprintf_r+0xd90>
   11b3c:	11013d83          	ld	s11,272(sp)
   11b40:	18010413          	add	s0,sp,384
   11b44:	b4cff06f          	j	10e90 <_vfprintf_r+0xa50>
   11b48:	0017869b          	addw	a3,a5,1
   11b4c:	01b43023          	sd	s11,0(s0)
   11b50:	01943423          	sd	s9,8(s0)
   11b54:	01970733          	add	a4,a4,s9
   11b58:	10e13823          	sd	a4,272(sp)
   11b5c:	10d12423          	sw	a3,264(sp)
   11b60:	00700793          	li	a5,7
   11b64:	00d7c463          	blt	a5,a3,11b6c <_vfprintf_r+0x172c>
   11b68:	be9fe06f          	j	10750 <_vfprintf_r+0x310>
   11b6c:	f1dfe06f          	j	10a88 <_vfprintf_r+0x648>
   11b70:	0f013503          	ld	a0,240(sp)
   11b74:	0f813583          	ld	a1,248(sp)
   11b78:	00000613          	li	a2,0
   11b7c:	00000693          	li	a3,0
   11b80:	33d0e0ef          	jal	206bc <__letf2>
   11b84:	260548e3          	bltz	a0,125f4 <_vfprintf_r+0x21b4>
   11b88:	0cf14703          	lbu	a4,207(sp)
   11b8c:	04700793          	li	a5,71
   11b90:	3b97d663          	bge	a5,s9,11f3c <_vfprintf_r+0x1afc>
   11b94:	000227b7          	lui	a5,0x22
   11b98:	d1078b13          	add	s6,a5,-752 # 21d10 <__clzdi2+0x84>
   11b9c:	f7f97913          	and	s2,s2,-129
   11ba0:	00013c23          	sd	zero,24(sp)
   11ba4:	04013423          	sd	zero,72(sp)
   11ba8:	04013023          	sd	zero,64(sp)
   11bac:	02013823          	sd	zero,48(sp)
   11bb0:	0009091b          	sext.w	s2,s2
   11bb4:	00300c13          	li	s8,3
   11bb8:	00300d13          	li	s10,3
   11bbc:	00000313          	li	t1,0
   11bc0:	00070463          	beqz	a4,11bc8 <_vfprintf_r+0x1788>
   11bc4:	f95fe06f          	j	10b58 <_vfprintf_r+0x718>
   11bc8:	ab9fe06f          	j	10680 <_vfprintf_r+0x240>
   11bcc:	10812583          	lw	a1,264(sp)
   11bd0:	05813783          	ld	a5,88(sp)
   11bd4:	06013683          	ld	a3,96(sp)
   11bd8:	01040413          	add	s0,s0,16
   11bdc:	00e78733          	add	a4,a5,a4
   11be0:	fed43823          	sd	a3,-16(s0)
   11be4:	0015869b          	addw	a3,a1,1
   11be8:	fef43c23          	sd	a5,-8(s0)
   11bec:	10e13823          	sd	a4,272(sp)
   11bf0:	10d12423          	sw	a3,264(sp)
   11bf4:	00700593          	li	a1,7
   11bf8:	5ed5c263          	blt	a1,a3,121dc <_vfprintf_r+0x1d9c>
   11bfc:	2c0642e3          	bltz	a2,126c0 <_vfprintf_r+0x2280>
   11c00:	03813783          	ld	a5,56(sp)
   11c04:	0016861b          	addw	a2,a3,1
   11c08:	01643023          	sd	s6,0(s0)
   11c0c:	00e78733          	add	a4,a5,a4
   11c10:	00f43423          	sd	a5,8(s0)
   11c14:	10e13823          	sd	a4,272(sp)
   11c18:	10c12423          	sw	a2,264(sp)
   11c1c:	00700793          	li	a5,7
   11c20:	00c7c463          	blt	a5,a2,11c28 <_vfprintf_r+0x17e8>
   11c24:	b2dfe06f          	j	10750 <_vfprintf_r+0x310>
   11c28:	e61fe06f          	j	10a88 <_vfprintf_r+0x648>
   11c2c:	000b0513          	mv	a0,s6
   11c30:	06c070ef          	jal	18c9c <strlen>
   11c34:	00050d1b          	sext.w	s10,a0
   11c38:	ef5fe06f          	j	10b2c <_vfprintf_r+0x6ec>
   11c3c:	0014041b          	addw	s0,s0,1
   11c40:	015d0d33          	add	s10,s10,s5
   11c44:	01bcb023          	sd	s11,0(s9)
   11c48:	015cb423          	sd	s5,8(s9)
   11c4c:	11a13823          	sd	s10,272(sp)
   11c50:	10812423          	sw	s0,264(sp)
   11c54:	00700793          	li	a5,7
   11c58:	0087c463          	blt	a5,s0,11c60 <_vfprintf_r+0x1820>
   11c5c:	df9fe06f          	j	10a54 <_vfprintf_r+0x614>
   11c60:	939ff06f          	j	11598 <_vfprintf_r+0x1158>
   11c64:	20097793          	and	a5,s2,512
   11c68:	52078a63          	beqz	a5,1219c <_vfprintf_r+0x1d5c>
   11c6c:	018d1d1b          	sllw	s10,s10,0x18
   11c70:	418d5d1b          	sraw	s10,s10,0x18
   11c74:	000d0793          	mv	a5,s10
   11c78:	8b4ff06f          	j	10d2c <_vfprintf_r+0x8ec>
   11c7c:	20097793          	and	a5,s2,512
   11c80:	50078863          	beqz	a5,12190 <_vfprintf_r+0x1d50>
   11c84:	0ffd7d13          	zext.b	s10,s10
   11c88:	b79ff06f          	j	11800 <_vfprintf_r+0x13c0>
   11c8c:	200df793          	and	a5,s11,512
   11c90:	50078a63          	beqz	a5,121a4 <_vfprintf_r+0x1d64>
   11c94:	0ffd7d13          	zext.b	s10,s10
   11c98:	02e13023          	sd	a4,32(sp)
   11c9c:	00100793          	li	a5,1
   11ca0:	ffdfe06f          	j	10c9c <_vfprintf_r+0x85c>
   11ca4:	20097793          	and	a5,s2,512
   11ca8:	4c078863          	beqz	a5,12178 <_vfprintf_r+0x1d38>
   11cac:	0ffd7d13          	zext.b	s10,s10
   11cb0:	8c8ff06f          	j	10d78 <_vfprintf_r+0x938>
   11cb4:	0f813783          	ld	a5,248(sp)
   11cb8:	5007c063          	bltz	a5,121b8 <_vfprintf_r+0x1d78>
   11cbc:	0cf14703          	lbu	a4,207(sp)
   11cc0:	04700793          	li	a5,71
   11cc4:	1f97d4e3          	bge	a5,s9,126ac <_vfprintf_r+0x226c>
   11cc8:	000227b7          	lui	a5,0x22
   11ccc:	d2078b13          	add	s6,a5,-736 # 21d20 <__clzdi2+0x94>
   11cd0:	ecdff06f          	j	11b9c <_vfprintf_r+0x175c>
   11cd4:	0016059b          	addw	a1,a2,1
   11cd8:	00ec8733          	add	a4,s9,a4
   11cdc:	01b43023          	sd	s11,0(s0)
   11ce0:	01943423          	sd	s9,8(s0)
   11ce4:	10e13823          	sd	a4,272(sp)
   11ce8:	10b12423          	sw	a1,264(sp)
   11cec:	00700693          	li	a3,7
   11cf0:	72b6c863          	blt	a3,a1,12420 <_vfprintf_r+0x1fe0>
   11cf4:	01040413          	add	s0,s0,16
   11cf8:	00070d93          	mv	s11,a4
   11cfc:	f44ff06f          	j	11440 <_vfprintf_r+0x1000>
   11d00:	04013c83          	ld	s9,64(sp)
   11d04:	00022e37          	lui	t3,0x22
   11d08:	08913823          	sd	s1,144(sp)
   11d0c:	09213c23          	sd	s2,152(sp)
   11d10:	0b413023          	sd	s4,160(sp)
   11d14:	05813023          	sd	s8,64(sp)
   11d18:	000b0a13          	mv	s4,s6
   11d1c:	07813903          	ld	s2,120(sp)
   11d20:	08813483          	ld	s1,136(sp)
   11d24:	08013b03          	ld	s6,128(sp)
   11d28:	04813c03          	ld	s8,72(sp)
   11d2c:	00013b83          	ld	s7,0(sp)
   11d30:	00700313          	li	t1,7
   11d34:	01000893          	li	a7,16
   11d38:	f68e0d13          	add	s10,t3,-152 # 21f68 <zeroes.0>
   11d3c:	000d8713          	mv	a4,s11
   11d40:	080c8c63          	beqz	s9,11dd8 <_vfprintf_r+0x1998>
   11d44:	160c0863          	beqz	s8,11eb4 <_vfprintf_r+0x1a74>
   11d48:	fffc0c1b          	addw	s8,s8,-1
   11d4c:	10812783          	lw	a5,264(sp)
   11d50:	01670733          	add	a4,a4,s6
   11d54:	00943023          	sd	s1,0(s0)
   11d58:	0017869b          	addw	a3,a5,1
   11d5c:	01643423          	sd	s6,8(s0)
   11d60:	10e13823          	sd	a4,272(sp)
   11d64:	10d12423          	sw	a3,264(sp)
   11d68:	01040413          	add	s0,s0,16
   11d6c:	14d34a63          	blt	t1,a3,11ec0 <_vfprintf_r+0x1a80>
   11d70:	00094683          	lbu	a3,0(s2)
   11d74:	414a8db3          	sub	s11,s5,s4
   11d78:	000d879b          	sext.w	a5,s11
   11d7c:	0006861b          	sext.w	a2,a3
   11d80:	00f6d463          	bge	a3,a5,11d88 <_vfprintf_r+0x1948>
   11d84:	00060d93          	mv	s11,a2
   11d88:	000d8d9b          	sext.w	s11,s11
   11d8c:	03b05863          	blez	s11,11dbc <_vfprintf_r+0x197c>
   11d90:	10812783          	lw	a5,264(sp)
   11d94:	01b70733          	add	a4,a4,s11
   11d98:	01443023          	sd	s4,0(s0)
   11d9c:	0017869b          	addw	a3,a5,1
   11da0:	01b43423          	sd	s11,8(s0)
   11da4:	10e13823          	sd	a4,272(sp)
   11da8:	10d12423          	sw	a3,264(sp)
   11dac:	12d34e63          	blt	t1,a3,11ee8 <_vfprintf_r+0x1aa8>
   11db0:	00094683          	lbu	a3,0(s2)
   11db4:	01040413          	add	s0,s0,16
   11db8:	0006861b          	sext.w	a2,a3
   11dbc:	fffdc793          	not	a5,s11
   11dc0:	43f7d793          	sra	a5,a5,0x3f
   11dc4:	00fdf7b3          	and	a5,s11,a5
   11dc8:	40f60dbb          	subw	s11,a2,a5
   11dcc:	03b04c63          	bgtz	s11,11e04 <_vfprintf_r+0x19c4>
   11dd0:	00da0a33          	add	s4,s4,a3
   11dd4:	f60c98e3          	bnez	s9,11d44 <_vfprintf_r+0x1904>
   11dd8:	f60c18e3          	bnez	s8,11d48 <_vfprintf_r+0x1908>
   11ddc:	07213c23          	sd	s2,120(sp)
   11de0:	000a0b13          	mv	s6,s4
   11de4:	09013483          	ld	s1,144(sp)
   11de8:	09813903          	ld	s2,152(sp)
   11dec:	0a013a03          	ld	s4,160(sp)
   11df0:	04013c03          	ld	s8,64(sp)
   11df4:	00070d93          	mv	s11,a4
   11df8:	e56afc63          	bgeu	s5,s6,11450 <_vfprintf_r+0x1010>
   11dfc:	000a8b13          	mv	s6,s5
   11e00:	e50ff06f          	j	11450 <_vfprintf_r+0x1010>
   11e04:	00022637          	lui	a2,0x22
   11e08:	10812783          	lw	a5,264(sp)
   11e0c:	f6860613          	add	a2,a2,-152 # 21f68 <zeroes.0>
   11e10:	07b8dc63          	bge	a7,s11,11e88 <_vfprintf_r+0x1a48>
   11e14:	02913823          	sd	s1,48(sp)
   11e18:	000d8493          	mv	s1,s11
   11e1c:	000d0d93          	mv	s11,s10
   11e20:	00c0006f          	j	11e2c <_vfprintf_r+0x19ec>
   11e24:	ff04849b          	addw	s1,s1,-16
   11e28:	0498da63          	bge	a7,s1,11e7c <_vfprintf_r+0x1a3c>
   11e2c:	0017879b          	addw	a5,a5,1
   11e30:	01070713          	add	a4,a4,16
   11e34:	01a43023          	sd	s10,0(s0)
   11e38:	01143423          	sd	a7,8(s0)
   11e3c:	10e13823          	sd	a4,272(sp)
   11e40:	10f12423          	sw	a5,264(sp)
   11e44:	01040413          	add	s0,s0,16
   11e48:	fcf35ee3          	bge	t1,a5,11e24 <_vfprintf_r+0x19e4>
   11e4c:	10010613          	add	a2,sp,256
   11e50:	000b8593          	mv	a1,s7
   11e54:	00098513          	mv	a0,s3
   11e58:	678090ef          	jal	1b4d0 <__sprint_r>
   11e5c:	b6051a63          	bnez	a0,111d0 <_vfprintf_r+0xd90>
   11e60:	01000893          	li	a7,16
   11e64:	ff04849b          	addw	s1,s1,-16
   11e68:	11013703          	ld	a4,272(sp)
   11e6c:	10812783          	lw	a5,264(sp)
   11e70:	18010413          	add	s0,sp,384
   11e74:	00700313          	li	t1,7
   11e78:	fa98cae3          	blt	a7,s1,11e2c <_vfprintf_r+0x19ec>
   11e7c:	000d8613          	mv	a2,s11
   11e80:	00048d93          	mv	s11,s1
   11e84:	03013483          	ld	s1,48(sp)
   11e88:	0017869b          	addw	a3,a5,1
   11e8c:	00ed8733          	add	a4,s11,a4
   11e90:	00c43023          	sd	a2,0(s0)
   11e94:	01b43423          	sd	s11,8(s0)
   11e98:	10e13823          	sd	a4,272(sp)
   11e9c:	10d12423          	sw	a3,264(sp)
   11ea0:	6ed34863          	blt	t1,a3,12590 <_vfprintf_r+0x2150>
   11ea4:	00094683          	lbu	a3,0(s2)
   11ea8:	01040413          	add	s0,s0,16
   11eac:	00da0a33          	add	s4,s4,a3
   11eb0:	f25ff06f          	j	11dd4 <_vfprintf_r+0x1994>
   11eb4:	fff90913          	add	s2,s2,-1
   11eb8:	fffc8c9b          	addw	s9,s9,-1
   11ebc:	e91ff06f          	j	11d4c <_vfprintf_r+0x190c>
   11ec0:	10010613          	add	a2,sp,256
   11ec4:	000b8593          	mv	a1,s7
   11ec8:	00098513          	mv	a0,s3
   11ecc:	604090ef          	jal	1b4d0 <__sprint_r>
   11ed0:	b0051063          	bnez	a0,111d0 <_vfprintf_r+0xd90>
   11ed4:	11013703          	ld	a4,272(sp)
   11ed8:	18010413          	add	s0,sp,384
   11edc:	01000893          	li	a7,16
   11ee0:	00700313          	li	t1,7
   11ee4:	e8dff06f          	j	11d70 <_vfprintf_r+0x1930>
   11ee8:	10010613          	add	a2,sp,256
   11eec:	000b8593          	mv	a1,s7
   11ef0:	00098513          	mv	a0,s3
   11ef4:	5dc090ef          	jal	1b4d0 <__sprint_r>
   11ef8:	ac051c63          	bnez	a0,111d0 <_vfprintf_r+0xd90>
   11efc:	00094683          	lbu	a3,0(s2)
   11f00:	11013703          	ld	a4,272(sp)
   11f04:	18010413          	add	s0,sp,384
   11f08:	0006861b          	sext.w	a2,a3
   11f0c:	01000893          	li	a7,16
   11f10:	00700313          	li	t1,7
   11f14:	ea9ff06f          	j	11dbc <_vfprintf_r+0x197c>
   11f18:	00013583          	ld	a1,0(sp)
   11f1c:	10010613          	add	a2,sp,256
   11f20:	00098513          	mv	a0,s3
   11f24:	5ac090ef          	jal	1b4d0 <__sprint_r>
   11f28:	aa051463          	bnez	a0,111d0 <_vfprintf_r+0xd90>
   11f2c:	0d812603          	lw	a2,216(sp)
   11f30:	11013703          	ld	a4,272(sp)
   11f34:	18010413          	add	s0,sp,384
   11f38:	b89ff06f          	j	11ac0 <_vfprintf_r+0x1680>
   11f3c:	000227b7          	lui	a5,0x22
   11f40:	d0878b13          	add	s6,a5,-760 # 21d08 <__clzdi2+0x7c>
   11f44:	c59ff06f          	j	11b9c <_vfprintf_r+0x175c>
   11f48:	00030913          	mv	s2,t1
   11f4c:	00200693          	li	a3,2
   11f50:	00090713          	mv	a4,s2
   11f54:	0e810893          	add	a7,sp,232
   11f58:	0dc10813          	add	a6,sp,220
   11f5c:	0d810793          	add	a5,sp,216
   11f60:	000b8593          	mv	a1,s7
   11f64:	000c0613          	mv	a2,s8
   11f68:	00098513          	mv	a0,s3
   11f6c:	02613823          	sd	t1,48(sp)
   11f70:	4b0030ef          	jal	15420 <_ldtoa_r>
   11f74:	06700713          	li	a4,103
   11f78:	03013303          	ld	t1,48(sp)
   11f7c:	00050b13          	mv	s6,a0
   11f80:	5eec8c63          	beq	s9,a4,12578 <_vfprintf_r+0x2138>
   11f84:	04700713          	li	a4,71
   11f88:	5eec8863          	beq	s9,a4,12578 <_vfprintf_r+0x2138>
   11f8c:	fdfcfa93          	and	s5,s9,-33
   11f90:	04600713          	li	a4,70
   11f94:	01250d33          	add	s10,a0,s2
   11f98:	66ea8663          	beq	s5,a4,12604 <_vfprintf_r+0x21c4>
   11f9c:	000c0593          	mv	a1,s8
   11fa0:	00000613          	li	a2,0
   11fa4:	00000693          	li	a3,0
   11fa8:	000b8513          	mv	a0,s7
   11fac:	02613823          	sd	t1,48(sp)
   11fb0:	55c0e0ef          	jal	2050c <__eqtf2>
   11fb4:	03013303          	ld	t1,48(sp)
   11fb8:	000d0c13          	mv	s8,s10
   11fbc:	02050263          	beqz	a0,11fe0 <_vfprintf_r+0x1ba0>
   11fc0:	0e813c03          	ld	s8,232(sp)
   11fc4:	01ac7e63          	bgeu	s8,s10,11fe0 <_vfprintf_r+0x1ba0>
   11fc8:	03000693          	li	a3,48
   11fcc:	001c0793          	add	a5,s8,1
   11fd0:	0ef13423          	sd	a5,232(sp)
   11fd4:	00dc0023          	sb	a3,0(s8)
   11fd8:	0e813c03          	ld	s8,232(sp)
   11fdc:	ffac68e3          	bltu	s8,s10,11fcc <_vfprintf_r+0x1b8c>
   11fe0:	416c07bb          	subw	a5,s8,s6
   11fe4:	02f13c23          	sd	a5,56(sp)
   11fe8:	0d812703          	lw	a4,216(sp)
   11fec:	04700693          	li	a3,71
   11ff0:	02e13823          	sd	a4,48(sp)
   11ff4:	4cda8c63          	beq	s5,a3,124cc <_vfprintf_r+0x208c>
   11ff8:	04600693          	li	a3,70
   11ffc:	72da8a63          	beq	s5,a3,12730 <_vfprintf_r+0x22f0>
   12000:	fff70d1b          	addw	s10,a4,-1
   12004:	0da12c23          	sw	s10,216(sp)
   12008:	06100693          	li	a3,97
   1200c:	1cdc80e3          	beq	s9,a3,129cc <_vfprintf_r+0x258c>
   12010:	04100613          	li	a2,65
   12014:	05000693          	li	a3,80
   12018:	4ccc9863          	bne	s9,a2,124e8 <_vfprintf_r+0x20a8>
   1201c:	00100613          	li	a2,1
   12020:	0ed10023          	sb	a3,224(sp)
   12024:	02b00693          	li	a3,43
   12028:	000d5863          	bgez	s10,12038 <_vfprintf_r+0x1bf8>
   1202c:	00100d13          	li	s10,1
   12030:	40ed0d3b          	subw	s10,s10,a4
   12034:	02d00693          	li	a3,45
   12038:	0ed100a3          	sb	a3,225(sp)
   1203c:	00900713          	li	a4,9
   12040:	77a75e63          	bge	a4,s10,127bc <_vfprintf_r+0x237c>
   12044:	0ef10913          	add	s2,sp,239
   12048:	00090a93          	mv	s5,s2
   1204c:	06300b93          	li	s7,99
   12050:	00a00593          	li	a1,10
   12054:	000d0513          	mv	a0,s10
   12058:	3f90f0ef          	jal	21c50 <__moddi3>
   1205c:	0305079b          	addw	a5,a0,48
   12060:	fefa8fa3          	sb	a5,-1(s5)
   12064:	000d0513          	mv	a0,s10
   12068:	00a00593          	li	a1,10
   1206c:	000d0c13          	mv	s8,s10
   12070:	35d0f0ef          	jal	21bcc <__divdi3>
   12074:	000a8d93          	mv	s11,s5
   12078:	00050d1b          	sext.w	s10,a0
   1207c:	fffa8a93          	add	s5,s5,-1
   12080:	fd8bc8e3          	blt	s7,s8,12050 <_vfprintf_r+0x1c10>
   12084:	030d0d1b          	addw	s10,s10,48
   12088:	ffed8713          	add	a4,s11,-2
   1208c:	ffaa8fa3          	sb	s10,-1(s5)
   12090:	1b277ae3          	bgeu	a4,s2,12a44 <_vfprintf_r+0x2604>
   12094:	0e210693          	add	a3,sp,226
   12098:	00074783          	lbu	a5,0(a4)
   1209c:	00170713          	add	a4,a4,1
   120a0:	00168693          	add	a3,a3,1
   120a4:	fef68fa3          	sb	a5,-1(a3)
   120a8:	ff2718e3          	bne	a4,s2,12098 <_vfprintf_r+0x1c58>
   120ac:	0f110713          	add	a4,sp,241
   120b0:	0e210793          	add	a5,sp,226
   120b4:	41b70733          	sub	a4,a4,s11
   120b8:	00e78733          	add	a4,a5,a4
   120bc:	0e010693          	add	a3,sp,224
   120c0:	40d707bb          	subw	a5,a4,a3
   120c4:	06f13823          	sd	a5,112(sp)
   120c8:	07013703          	ld	a4,112(sp)
   120cc:	03813783          	ld	a5,56(sp)
   120d0:	00100613          	li	a2,1
   120d4:	00e78d3b          	addw	s10,a5,a4
   120d8:	000d0713          	mv	a4,s10
   120dc:	02f658e3          	bge	a2,a5,1290c <_vfprintf_r+0x24cc>
   120e0:	05813783          	ld	a5,88(sp)
   120e4:	00f70d3b          	addw	s10,a4,a5
   120e8:	04013783          	ld	a5,64(sp)
   120ec:	fffd4813          	not	a6,s10
   120f0:	43f85813          	sra	a6,a6,0x3f
   120f4:	bff7f913          	and	s2,a5,-1025
   120f8:	0009091b          	sext.w	s2,s2
   120fc:	010d7833          	and	a6,s10,a6
   12100:	10096913          	or	s2,s2,256
   12104:	00080c1b          	sext.w	s8,a6
   12108:	04013423          	sd	zero,72(sp)
   1210c:	04013023          	sd	zero,64(sp)
   12110:	02013823          	sd	zero,48(sp)
   12114:	09813783          	ld	a5,152(sp)
   12118:	3c078e63          	beqz	a5,124f4 <_vfprintf_r+0x20b4>
   1211c:	02d00713          	li	a4,45
   12120:	0ce107a3          	sb	a4,207(sp)
   12124:	00000313          	li	t1,0
   12128:	001c0c1b          	addw	s8,s8,1
   1212c:	d54fe06f          	j	10680 <_vfprintf_r+0x240>
   12130:	00013583          	ld	a1,0(sp)
   12134:	10010613          	add	a2,sp,256
   12138:	00098513          	mv	a0,s3
   1213c:	394090ef          	jal	1b4d0 <__sprint_r>
   12140:	88051863          	bnez	a0,111d0 <_vfprintf_r+0xd90>
   12144:	11013d83          	ld	s11,272(sp)
   12148:	18010413          	add	s0,sp,384
   1214c:	adcff06f          	j	11428 <_vfprintf_r+0xfe8>
   12150:	00600693          	li	a3,6
   12154:	f5cff06f          	j	118b0 <_vfprintf_r+0x1470>
   12158:	416a8cb3          	sub	s9,s5,s6
   1215c:	40d7863b          	subw	a2,a5,a3
   12160:	000c879b          	sext.w	a5,s9
   12164:	000d8713          	mv	a4,s11
   12168:	00f65463          	bge	a2,a5,12170 <_vfprintf_r+0x1d30>
   1216c:	00060c93          	mv	s9,a2
   12170:	000c8c9b          	sext.w	s9,s9
   12174:	b70ff06f          	j	114e4 <_vfprintf_r+0x10a4>
   12178:	020d1d13          	sll	s10,s10,0x20
   1217c:	020d5d13          	srl	s10,s10,0x20
   12180:	bf9fe06f          	j	10d78 <_vfprintf_r+0x938>
   12184:	01013783          	ld	a5,16(sp)
   12188:	00f71023          	sh	a5,0(a4)
   1218c:	c29fe06f          	j	10db4 <_vfprintf_r+0x974>
   12190:	020d1d13          	sll	s10,s10,0x20
   12194:	020d5d13          	srl	s10,s10,0x20
   12198:	e68ff06f          	j	11800 <_vfprintf_r+0x13c0>
   1219c:	000d0793          	mv	a5,s10
   121a0:	b8dfe06f          	j	10d2c <_vfprintf_r+0x8ec>
   121a4:	020d1d13          	sll	s10,s10,0x20
   121a8:	020d5d13          	srl	s10,s10,0x20
   121ac:	02e13023          	sd	a4,32(sp)
   121b0:	00100793          	li	a5,1
   121b4:	ae9fe06f          	j	10c9c <_vfprintf_r+0x85c>
   121b8:	02d00793          	li	a5,45
   121bc:	0cf107a3          	sb	a5,207(sp)
   121c0:	02d00713          	li	a4,45
   121c4:	afdff06f          	j	11cc0 <_vfprintf_r+0x1880>
   121c8:	00013583          	ld	a1,0(sp)
   121cc:	05013503          	ld	a0,80(sp)
   121d0:	10010613          	add	a2,sp,256
   121d4:	2fc090ef          	jal	1b4d0 <__sprint_r>
   121d8:	ddcfe06f          	j	107b4 <_vfprintf_r+0x374>
   121dc:	00013583          	ld	a1,0(sp)
   121e0:	10010613          	add	a2,sp,256
   121e4:	00098513          	mv	a0,s3
   121e8:	2e8090ef          	jal	1b4d0 <__sprint_r>
   121ec:	00050463          	beqz	a0,121f4 <_vfprintf_r+0x1db4>
   121f0:	fe1fe06f          	j	111d0 <_vfprintf_r+0xd90>
   121f4:	0d812603          	lw	a2,216(sp)
   121f8:	11013703          	ld	a4,272(sp)
   121fc:	10812683          	lw	a3,264(sp)
   12200:	18010413          	add	s0,sp,384
   12204:	9f9ff06f          	j	11bfc <_vfprintf_r+0x17bc>
   12208:	05800713          	li	a4,88
   1220c:	00296793          	or	a5,s2,2
   12210:	03000693          	li	a3,48
   12214:	0007879b          	sext.w	a5,a5
   12218:	0ce108a3          	sb	a4,209(sp)
   1221c:	0cd10823          	sb	a3,208(sp)
   12220:	06300713          	li	a4,99
   12224:	04f13023          	sd	a5,64(sp)
   12228:	00013c23          	sd	zero,24(sp)
   1222c:	11810b13          	add	s6,sp,280
   12230:	64674c63          	blt	a4,t1,12888 <_vfprintf_r+0x2448>
   12234:	10296913          	or	s2,s2,258
   12238:	0f813c03          	ld	s8,248(sp)
   1223c:	0009079b          	sext.w	a5,s2
   12240:	08f13823          	sd	a5,144(sp)
   12244:	08013c23          	sd	zero,152(sp)
   12248:	0f013b83          	ld	s7,240(sp)
   1224c:	300c4a63          	bltz	s8,12560 <_vfprintf_r+0x2120>
   12250:	06100713          	li	a4,97
   12254:	00ec8463          	beq	s9,a4,1225c <_vfprintf_r+0x1e1c>
   12258:	ef8fe06f          	j	10950 <_vfprintf_r+0x510>
   1225c:	000c0593          	mv	a1,s8
   12260:	000b8513          	mv	a0,s7
   12264:	02613823          	sd	t1,48(sp)
   12268:	7400f0ef          	jal	219a8 <__trunctfdf2>
   1226c:	0d810593          	add	a1,sp,216
   12270:	50c060ef          	jal	1877c <frexp>
   12274:	6440f0ef          	jal	218b8 <__extenddftf2>
   12278:	00022737          	lui	a4,0x22
   1227c:	f9873683          	ld	a3,-104(a4) # 21f98 <blanks.1+0x20>
   12280:	00000613          	li	a2,0
   12284:	5440e0ef          	jal	207c8 <__multf3>
   12288:	00000613          	li	a2,0
   1228c:	00000693          	li	a3,0
   12290:	00050d93          	mv	s11,a0
   12294:	00058913          	mv	s2,a1
   12298:	2740e0ef          	jal	2050c <__eqtf2>
   1229c:	03013303          	ld	t1,48(sp)
   122a0:	00051663          	bnez	a0,122ac <_vfprintf_r+0x1e6c>
   122a4:	00100713          	li	a4,1
   122a8:	0ce12c23          	sw	a4,216(sp)
   122ac:	00022737          	lui	a4,0x22
   122b0:	d4070793          	add	a5,a4,-704 # 21d40 <__clzdi2+0xb4>
   122b4:	02f13c23          	sd	a5,56(sp)
   122b8:	000226b7          	lui	a3,0x22
   122bc:	fa86b783          	ld	a5,-88(a3) # 21fa8 <blanks.1+0x30>
   122c0:	02031713          	sll	a4,t1,0x20
   122c4:	02075713          	srl	a4,a4,0x20
   122c8:	00170713          	add	a4,a4,1
   122cc:	02f13823          	sd	a5,48(sp)
   122d0:	0003061b          	sext.w	a2,t1
   122d4:	00eb07b3          	add	a5,s6,a4
   122d8:	04913423          	sd	s1,72(sp)
   122dc:	0b413023          	sd	s4,160(sp)
   122e0:	0a813823          	sd	s0,176(sp)
   122e4:	03813483          	ld	s1,56(sp)
   122e8:	0ac13c23          	sd	a2,184(sp)
   122ec:	0a613423          	sd	t1,168(sp)
   122f0:	00078413          	mv	s0,a5
   122f4:	000b0a13          	mv	s4,s6
   122f8:	00098b93          	mv	s7,s3
   122fc:	000b0d13          	mv	s10,s6
   12300:	0140006f          	j	12314 <_vfprintf_r+0x1ed4>
   12304:	00000613          	li	a2,0
   12308:	00000693          	li	a3,0
   1230c:	2000e0ef          	jal	2050c <__eqtf2>
   12310:	5a050663          	beqz	a0,128bc <_vfprintf_r+0x247c>
   12314:	03013683          	ld	a3,48(sp)
   12318:	00000613          	li	a2,0
   1231c:	000d8513          	mv	a0,s11
   12320:	00090593          	mv	a1,s2
   12324:	4a40e0ef          	jal	207c8 <__multf3>
   12328:	00058913          	mv	s2,a1
   1232c:	00050993          	mv	s3,a0
   12330:	4980f0ef          	jal	217c8 <__fixtfsi>
   12334:	00050c1b          	sext.w	s8,a0
   12338:	000c0513          	mv	a0,s8
   1233c:	4f40f0ef          	jal	21830 <__floatsitf>
   12340:	00058693          	mv	a3,a1
   12344:	00050613          	mv	a2,a0
   12348:	00090593          	mv	a1,s2
   1234c:	00098513          	mv	a0,s3
   12350:	3c50e0ef          	jal	20f14 <__subtf3>
   12354:	01848733          	add	a4,s1,s8
   12358:	00074683          	lbu	a3,0(a4)
   1235c:	000a0993          	mv	s3,s4
   12360:	001a0a13          	add	s4,s4,1
   12364:	feda0fa3          	sb	a3,-1(s4)
   12368:	00050a93          	mv	s5,a0
   1236c:	00058b13          	mv	s6,a1
   12370:	00050d93          	mv	s11,a0
   12374:	00058913          	mv	s2,a1
   12378:	f94416e3          	bne	s0,s4,12304 <_vfprintf_r+0x1ec4>
   1237c:	000a0a93          	mv	s5,s4
   12380:	04813483          	ld	s1,72(sp)
   12384:	0a813303          	ld	t1,168(sp)
   12388:	0b013403          	ld	s0,176(sp)
   1238c:	0a013a03          	ld	s4,160(sp)
   12390:	03313823          	sd	s3,48(sp)
   12394:	000d0b13          	mv	s6,s10
   12398:	000b8993          	mv	s3,s7
   1239c:	00050d13          	mv	s10,a0
   123a0:	00058b93          	mv	s7,a1
   123a4:	fff00d93          	li	s11,-1
   123a8:	000226b7          	lui	a3,0x22
   123ac:	fb86b903          	ld	s2,-72(a3) # 21fb8 <blanks.1+0x40>
   123b0:	00000613          	li	a2,0
   123b4:	000d0513          	mv	a0,s10
   123b8:	00090693          	mv	a3,s2
   123bc:	000b8593          	mv	a1,s7
   123c0:	04613423          	sd	t1,72(sp)
   123c4:	1ec0e0ef          	jal	205b0 <__getf2>
   123c8:	04813303          	ld	t1,72(sp)
   123cc:	46a04463          	bgtz	a0,12834 <_vfprintf_r+0x23f4>
   123d0:	00000613          	li	a2,0
   123d4:	00090693          	mv	a3,s2
   123d8:	000d0513          	mv	a0,s10
   123dc:	000b8593          	mv	a1,s7
   123e0:	12c0e0ef          	jal	2050c <__eqtf2>
   123e4:	04813303          	ld	t1,72(sp)
   123e8:	00051663          	bnez	a0,123f4 <_vfprintf_r+0x1fb4>
   123ec:	001c7c13          	and	s8,s8,1
   123f0:	440c1263          	bnez	s8,12834 <_vfprintf_r+0x23f4>
   123f4:	001d8c1b          	addw	s8,s11,1
   123f8:	018a8c33          	add	s8,s5,s8
   123fc:	03000693          	li	a3,48
   12400:	480dc063          	bltz	s11,12880 <_vfprintf_r+0x2440>
   12404:	001a8a93          	add	s5,s5,1
   12408:	feda8fa3          	sb	a3,-1(s5)
   1240c:	ff5c1ce3          	bne	s8,s5,12404 <_vfprintf_r+0x1fc4>
   12410:	416c07bb          	subw	a5,s8,s6
   12414:	02f13c23          	sd	a5,56(sp)
   12418:	fdfcfa93          	and	s5,s9,-33
   1241c:	bcdff06f          	j	11fe8 <_vfprintf_r+0x1ba8>
   12420:	00013583          	ld	a1,0(sp)
   12424:	10010613          	add	a2,sp,256
   12428:	00098513          	mv	a0,s3
   1242c:	0a4090ef          	jal	1b4d0 <__sprint_r>
   12430:	00050463          	beqz	a0,12438 <_vfprintf_r+0x1ff8>
   12434:	d9dfe06f          	j	111d0 <_vfprintf_r+0xd90>
   12438:	11013d83          	ld	s11,272(sp)
   1243c:	18010413          	add	s0,sp,384
   12440:	800ff06f          	j	11440 <_vfprintf_r+0x1000>
   12444:	0013091b          	addw	s2,t1,1
   12448:	00200693          	li	a3,2
   1244c:	b05ff06f          	j	11f50 <_vfprintf_r+0x1b10>
   12450:	00030913          	mv	s2,t1
   12454:	00300693          	li	a3,3
   12458:	af9ff06f          	j	11f50 <_vfprintf_r+0x1b10>
   1245c:	000c0593          	mv	a1,s8
   12460:	000b8513          	mv	a0,s7
   12464:	02613823          	sd	t1,48(sp)
   12468:	5400f0ef          	jal	219a8 <__trunctfdf2>
   1246c:	0d810593          	add	a1,sp,216
   12470:	30c060ef          	jal	1877c <frexp>
   12474:	4440f0ef          	jal	218b8 <__extenddftf2>
   12478:	00022737          	lui	a4,0x22
   1247c:	f9873683          	ld	a3,-104(a4) # 21f98 <blanks.1+0x20>
   12480:	00000613          	li	a2,0
   12484:	3440e0ef          	jal	207c8 <__multf3>
   12488:	00000613          	li	a2,0
   1248c:	00000693          	li	a3,0
   12490:	00050d93          	mv	s11,a0
   12494:	00058913          	mv	s2,a1
   12498:	0740e0ef          	jal	2050c <__eqtf2>
   1249c:	03013303          	ld	t1,48(sp)
   124a0:	00051663          	bnez	a0,124ac <_vfprintf_r+0x206c>
   124a4:	00100713          	li	a4,1
   124a8:	0ce12c23          	sw	a4,216(sp)
   124ac:	00022737          	lui	a4,0x22
   124b0:	d2870793          	add	a5,a4,-728 # 21d28 <__clzdi2+0x9c>
   124b4:	02f13c23          	sd	a5,56(sp)
   124b8:	e01ff06f          	j	122b8 <_vfprintf_r+0x1e78>
   124bc:	0e813c03          	ld	s8,232(sp)
   124c0:	0d812703          	lw	a4,216(sp)
   124c4:	416c07bb          	subw	a5,s8,s6
   124c8:	02f13c23          	sd	a5,56(sp)
   124cc:	ffd00693          	li	a3,-3
   124d0:	02e13823          	sd	a4,48(sp)
   124d4:	00d74463          	blt	a4,a3,124dc <_vfprintf_r+0x209c>
   124d8:	02e35863          	bge	t1,a4,12508 <_vfprintf_r+0x20c8>
   124dc:	fff70d1b          	addw	s10,a4,-1
   124e0:	ffec8c9b          	addw	s9,s9,-2
   124e4:	0da12c23          	sw	s10,216(sp)
   124e8:	0ffcf693          	zext.b	a3,s9
   124ec:	00000613          	li	a2,0
   124f0:	b31ff06f          	j	12020 <_vfprintf_r+0x1be0>
   124f4:	0cf14703          	lbu	a4,207(sp)
   124f8:	00000313          	li	t1,0
   124fc:	00070463          	beqz	a4,12504 <_vfprintf_r+0x20c4>
   12500:	e58fe06f          	j	10b58 <_vfprintf_r+0x718>
   12504:	97cfe06f          	j	10680 <_vfprintf_r+0x240>
   12508:	03813783          	ld	a5,56(sp)
   1250c:	26f74463          	blt	a4,a5,12774 <_vfprintf_r+0x2334>
   12510:	04013783          	ld	a5,64(sp)
   12514:	00070d13          	mv	s10,a4
   12518:	0017f613          	and	a2,a5,1
   1251c:	00060663          	beqz	a2,12528 <_vfprintf_r+0x20e8>
   12520:	05813783          	ld	a5,88(sp)
   12524:	00e78d3b          	addw	s10,a5,a4
   12528:	04013783          	ld	a5,64(sp)
   1252c:	4007f613          	and	a2,a5,1024
   12530:	00060463          	beqz	a2,12538 <_vfprintf_r+0x20f8>
   12534:	3ee04863          	bgtz	a4,12924 <_vfprintf_r+0x24e4>
   12538:	fffd4813          	not	a6,s10
   1253c:	43f85813          	sra	a6,a6,0x3f
   12540:	09013903          	ld	s2,144(sp)
   12544:	010d7833          	and	a6,s10,a6
   12548:	00080c1b          	sext.w	s8,a6
   1254c:	06700c93          	li	s9,103
   12550:	04013423          	sd	zero,72(sp)
   12554:	04013023          	sd	zero,64(sp)
   12558:	bbdff06f          	j	12114 <_vfprintf_r+0x1cd4>
   1255c:	00013c23          	sd	zero,24(sp)
   12560:	fff00713          	li	a4,-1
   12564:	03f71713          	sll	a4,a4,0x3f
   12568:	02d00793          	li	a5,45
   1256c:	00ec4c33          	xor	s8,s8,a4
   12570:	08f13c23          	sd	a5,152(sp)
   12574:	cddff06f          	j	12250 <_vfprintf_r+0x1e10>
   12578:	04013783          	ld	a5,64(sp)
   1257c:	0017f713          	and	a4,a5,1
   12580:	f2070ee3          	beqz	a4,124bc <_vfprintf_r+0x207c>
   12584:	012b0d33          	add	s10,s6,s2
   12588:	04700a93          	li	s5,71
   1258c:	a11ff06f          	j	11f9c <_vfprintf_r+0x1b5c>
   12590:	10010613          	add	a2,sp,256
   12594:	000b8593          	mv	a1,s7
   12598:	00098513          	mv	a0,s3
   1259c:	735080ef          	jal	1b4d0 <__sprint_r>
   125a0:	00050463          	beqz	a0,125a8 <_vfprintf_r+0x2168>
   125a4:	c2dfe06f          	j	111d0 <_vfprintf_r+0xd90>
   125a8:	00094683          	lbu	a3,0(s2)
   125ac:	11013703          	ld	a4,272(sp)
   125b0:	18010413          	add	s0,sp,384
   125b4:	01000893          	li	a7,16
   125b8:	00700313          	li	t1,7
   125bc:	00da0a33          	add	s4,s4,a3
   125c0:	815ff06f          	j	11dd4 <_vfprintf_r+0x1994>
   125c4:	07800713          	li	a4,120
   125c8:	c45ff06f          	j	1220c <_vfprintf_r+0x1dcc>
   125cc:	00013583          	ld	a1,0(sp)
   125d0:	10010613          	add	a2,sp,256
   125d4:	00098513          	mv	a0,s3
   125d8:	6f9080ef          	jal	1b4d0 <__sprint_r>
   125dc:	00050463          	beqz	a0,125e4 <_vfprintf_r+0x21a4>
   125e0:	bf1fe06f          	j	111d0 <_vfprintf_r+0xd90>
   125e4:	0d812683          	lw	a3,216(sp)
   125e8:	11013703          	ld	a4,272(sp)
   125ec:	18010413          	add	s0,sp,384
   125f0:	ea9fe06f          	j	11498 <_vfprintf_r+0x1058>
   125f4:	02d00793          	li	a5,45
   125f8:	0cf107a3          	sb	a5,207(sp)
   125fc:	02d00713          	li	a4,45
   12600:	d8cff06f          	j	11b8c <_vfprintf_r+0x174c>
   12604:	00054683          	lbu	a3,0(a0)
   12608:	03000713          	li	a4,48
   1260c:	00e68863          	beq	a3,a4,1261c <_vfprintf_r+0x21dc>
   12610:	0d812683          	lw	a3,216(sp)
   12614:	00dd0d33          	add	s10,s10,a3
   12618:	985ff06f          	j	11f9c <_vfprintf_r+0x1b5c>
   1261c:	00000613          	li	a2,0
   12620:	00000693          	li	a3,0
   12624:	000b8513          	mv	a0,s7
   12628:	000c0593          	mv	a1,s8
   1262c:	02613823          	sd	t1,48(sp)
   12630:	6dd0d0ef          	jal	2050c <__eqtf2>
   12634:	03013303          	ld	t1,48(sp)
   12638:	fc050ce3          	beqz	a0,12610 <_vfprintf_r+0x21d0>
   1263c:	00100713          	li	a4,1
   12640:	412706bb          	subw	a3,a4,s2
   12644:	0cd12c23          	sw	a3,216(sp)
   12648:	00dd0d33          	add	s10,s10,a3
   1264c:	951ff06f          	j	11f9c <_vfprintf_r+0x1b5c>
   12650:	0cf14703          	lbu	a4,207(sp)
   12654:	03513023          	sd	s5,32(sp)
   12658:	04013423          	sd	zero,72(sp)
   1265c:	04013023          	sd	zero,64(sp)
   12660:	02013823          	sd	zero,48(sp)
   12664:	00030c13          	mv	s8,t1
   12668:	00030d13          	mv	s10,t1
   1266c:	00000313          	li	t1,0
   12670:	00070463          	beqz	a4,12678 <_vfprintf_r+0x2238>
   12674:	ce4fe06f          	j	10b58 <_vfprintf_r+0x718>
   12678:	808fe06f          	j	10680 <_vfprintf_r+0x240>
   1267c:	00013583          	ld	a1,0(sp)
   12680:	10010613          	add	a2,sp,256
   12684:	00098513          	mv	a0,s3
   12688:	649080ef          	jal	1b4d0 <__sprint_r>
   1268c:	00050463          	beqz	a0,12694 <_vfprintf_r+0x2254>
   12690:	b41fe06f          	j	111d0 <_vfprintf_r+0xd90>
   12694:	0d812603          	lw	a2,216(sp)
   12698:	03813783          	ld	a5,56(sp)
   1269c:	11013703          	ld	a4,272(sp)
   126a0:	18010413          	add	s0,sp,384
   126a4:	40c7863b          	subw	a2,a5,a2
   126a8:	e3dfe06f          	j	114e4 <_vfprintf_r+0x10a4>
   126ac:	000227b7          	lui	a5,0x22
   126b0:	d1878b13          	add	s6,a5,-744 # 21d18 <__clzdi2+0x8c>
   126b4:	ce8ff06f          	j	11b9c <_vfprintf_r+0x175c>
   126b8:	00090d93          	mv	s11,s2
   126bc:	c31fe06f          	j	112ec <_vfprintf_r+0xeac>
   126c0:	00022f37          	lui	t5,0x22
   126c4:	ff000593          	li	a1,-16
   126c8:	40c00cbb          	negw	s9,a2
   126cc:	f68f0d93          	add	s11,t5,-152 # 21f68 <zeroes.0>
   126d0:	01000d13          	li	s10,16
   126d4:	00700a93          	li	s5,7
   126d8:	00b64863          	blt	a2,a1,126e8 <_vfprintf_r+0x22a8>
   126dc:	1100006f          	j	127ec <_vfprintf_r+0x23ac>
   126e0:	ff0c8c9b          	addw	s9,s9,-16
   126e4:	119d5463          	bge	s10,s9,127ec <_vfprintf_r+0x23ac>
   126e8:	0016869b          	addw	a3,a3,1
   126ec:	01070713          	add	a4,a4,16
   126f0:	01b43023          	sd	s11,0(s0)
   126f4:	01a43423          	sd	s10,8(s0)
   126f8:	10e13823          	sd	a4,272(sp)
   126fc:	10d12423          	sw	a3,264(sp)
   12700:	01040413          	add	s0,s0,16
   12704:	fcdadee3          	bge	s5,a3,126e0 <_vfprintf_r+0x22a0>
   12708:	00013583          	ld	a1,0(sp)
   1270c:	10010613          	add	a2,sp,256
   12710:	00098513          	mv	a0,s3
   12714:	5bd080ef          	jal	1b4d0 <__sprint_r>
   12718:	00050463          	beqz	a0,12720 <_vfprintf_r+0x22e0>
   1271c:	ab5fe06f          	j	111d0 <_vfprintf_r+0xd90>
   12720:	11013703          	ld	a4,272(sp)
   12724:	10812683          	lw	a3,264(sp)
   12728:	18010413          	add	s0,sp,384
   1272c:	fb5ff06f          	j	126e0 <_vfprintf_r+0x22a0>
   12730:	04013783          	ld	a5,64(sp)
   12734:	0017f713          	and	a4,a5,1
   12738:	03013783          	ld	a5,48(sp)
   1273c:	00e36733          	or	a4,t1,a4
   12740:	28f05a63          	blez	a5,129d4 <_vfprintf_r+0x2594>
   12744:	26071a63          	bnez	a4,129b8 <_vfprintf_r+0x2578>
   12748:	03013d03          	ld	s10,48(sp)
   1274c:	06600c93          	li	s9,102
   12750:	04013783          	ld	a5,64(sp)
   12754:	4007f713          	and	a4,a5,1024
   12758:	1c071863          	bnez	a4,12928 <_vfprintf_r+0x24e8>
   1275c:	fffd4813          	not	a6,s10
   12760:	43f85813          	sra	a6,a6,0x3f
   12764:	010d7833          	and	a6,s10,a6
   12768:	09013903          	ld	s2,144(sp)
   1276c:	00080c1b          	sext.w	s8,a6
   12770:	de1ff06f          	j	12550 <_vfprintf_r+0x2110>
   12774:	05813783          	ld	a5,88(sp)
   12778:	03813703          	ld	a4,56(sp)
   1277c:	06700c93          	li	s9,103
   12780:	00e78d3b          	addw	s10,a5,a4
   12784:	03013783          	ld	a5,48(sp)
   12788:	fcf044e3          	bgtz	a5,12750 <_vfprintf_r+0x2310>
   1278c:	40fd073b          	subw	a4,s10,a5
   12790:	0017071b          	addw	a4,a4,1
   12794:	00070d1b          	sext.w	s10,a4
   12798:	fffd4613          	not	a2,s10
   1279c:	43f65613          	sra	a2,a2,0x3f
   127a0:	00c77733          	and	a4,a4,a2
   127a4:	09013903          	ld	s2,144(sp)
   127a8:	00070c1b          	sext.w	s8,a4
   127ac:	da5ff06f          	j	12550 <_vfprintf_r+0x2110>
   127b0:	fff00793          	li	a5,-1
   127b4:	00f13823          	sd	a5,16(sp)
   127b8:	810fe06f          	j	107c8 <_vfprintf_r+0x388>
   127bc:	0e210713          	add	a4,sp,226
   127c0:	00061863          	bnez	a2,127d0 <_vfprintf_r+0x2390>
   127c4:	03000713          	li	a4,48
   127c8:	0ee10123          	sb	a4,226(sp)
   127cc:	0e310713          	add	a4,sp,227
   127d0:	20010793          	add	a5,sp,512
   127d4:	40f706b3          	sub	a3,a4,a5
   127d8:	030d0d1b          	addw	s10,s10,48
   127dc:	1216879b          	addw	a5,a3,289
   127e0:	01a70023          	sb	s10,0(a4)
   127e4:	06f13823          	sd	a5,112(sp)
   127e8:	8e1ff06f          	j	120c8 <_vfprintf_r+0x1c88>
   127ec:	0016869b          	addw	a3,a3,1
   127f0:	01970733          	add	a4,a4,s9
   127f4:	01b43023          	sd	s11,0(s0)
   127f8:	01943423          	sd	s9,8(s0)
   127fc:	10e13823          	sd	a4,272(sp)
   12800:	10d12423          	sw	a3,264(sp)
   12804:	00700613          	li	a2,7
   12808:	aed65e63          	bge	a2,a3,11b04 <_vfprintf_r+0x16c4>
   1280c:	00013583          	ld	a1,0(sp)
   12810:	10010613          	add	a2,sp,256
   12814:	00098513          	mv	a0,s3
   12818:	4b9080ef          	jal	1b4d0 <__sprint_r>
   1281c:	00050463          	beqz	a0,12824 <_vfprintf_r+0x23e4>
   12820:	9b1fe06f          	j	111d0 <_vfprintf_r+0xd90>
   12824:	11013703          	ld	a4,272(sp)
   12828:	10812683          	lw	a3,264(sp)
   1282c:	18010413          	add	s0,sp,384
   12830:	bd0ff06f          	j	11c00 <_vfprintf_r+0x17c0>
   12834:	03013783          	ld	a5,48(sp)
   12838:	000a8693          	mv	a3,s5
   1283c:	0ef13423          	sd	a5,232(sp)
   12840:	03813783          	ld	a5,56(sp)
   12844:	fffac603          	lbu	a2,-1(s5)
   12848:	00f7c583          	lbu	a1,15(a5)
   1284c:	02c59063          	bne	a1,a2,1286c <_vfprintf_r+0x242c>
   12850:	03000513          	li	a0,48
   12854:	fea68fa3          	sb	a0,-1(a3)
   12858:	0e813683          	ld	a3,232(sp)
   1285c:	fff68793          	add	a5,a3,-1
   12860:	0ef13423          	sd	a5,232(sp)
   12864:	fff6c603          	lbu	a2,-1(a3)
   12868:	fec586e3          	beq	a1,a2,12854 <_vfprintf_r+0x2414>
   1286c:	0016059b          	addw	a1,a2,1
   12870:	03900513          	li	a0,57
   12874:	0ff5f593          	zext.b	a1,a1
   12878:	02a60a63          	beq	a2,a0,128ac <_vfprintf_r+0x246c>
   1287c:	feb68fa3          	sb	a1,-1(a3)
   12880:	000a8c13          	mv	s8,s5
   12884:	b8dff06f          	j	12410 <_vfprintf_r+0x1fd0>
   12888:	0013059b          	addw	a1,t1,1
   1288c:	00098513          	mv	a0,s3
   12890:	00613c23          	sd	t1,24(sp)
   12894:	238040ef          	jal	16acc <_malloc_r>
   12898:	01813303          	ld	t1,24(sp)
   1289c:	00050b13          	mv	s6,a0
   128a0:	1a050e63          	beqz	a0,12a5c <_vfprintf_r+0x261c>
   128a4:	00a13c23          	sd	a0,24(sp)
   128a8:	98dff06f          	j	12234 <_vfprintf_r+0x1df4>
   128ac:	03813783          	ld	a5,56(sp)
   128b0:	00a7c583          	lbu	a1,10(a5)
   128b4:	feb68fa3          	sb	a1,-1(a3)
   128b8:	fc9ff06f          	j	12880 <_vfprintf_r+0x2440>
   128bc:	0b813603          	ld	a2,184(sp)
   128c0:	03313823          	sd	s3,48(sp)
   128c4:	000b8993          	mv	s3,s7
   128c8:	000b0b93          	mv	s7,s6
   128cc:	000d0b13          	mv	s6,s10
   128d0:	00cb063b          	addw	a2,s6,a2
   128d4:	000a8d13          	mv	s10,s5
   128d8:	000a0a93          	mv	s5,s4
   128dc:	04813483          	ld	s1,72(sp)
   128e0:	0a813303          	ld	t1,168(sp)
   128e4:	0b013403          	ld	s0,176(sp)
   128e8:	0a013a03          	ld	s4,160(sp)
   128ec:	41560dbb          	subw	s11,a2,s5
   128f0:	ab9ff06f          	j	123a8 <_vfprintf_r+0x1f68>
   128f4:	00030463          	beqz	t1,128fc <_vfprintf_r+0x24bc>
   128f8:	830fe06f          	j	10928 <_vfprintf_r+0x4e8>
   128fc:	00100313          	li	t1,1
   12900:	828fe06f          	j	10928 <_vfprintf_r+0x4e8>
   12904:	00600313          	li	t1,6
   12908:	820fe06f          	j	10928 <_vfprintf_r+0x4e8>
   1290c:	04013783          	ld	a5,64(sp)
   12910:	0017f613          	and	a2,a5,1
   12914:	fc060a63          	beqz	a2,120e8 <_vfprintf_r+0x1ca8>
   12918:	fc8ff06f          	j	120e0 <_vfprintf_r+0x1ca0>
   1291c:	00f72023          	sw	a5,0(a4)
   12920:	c94fe06f          	j	10db4 <_vfprintf_r+0x974>
   12924:	06700c93          	li	s9,103
   12928:	07813683          	ld	a3,120(sp)
   1292c:	0ff00613          	li	a2,255
   12930:	0006c703          	lbu	a4,0(a3)
   12934:	10c70e63          	beq	a4,a2,12a50 <_vfprintf_r+0x2610>
   12938:	03013783          	ld	a5,48(sp)
   1293c:	00000813          	li	a6,0
   12940:	00000513          	li	a0,0
   12944:	0ff00593          	li	a1,255
   12948:	0007061b          	sext.w	a2,a4
   1294c:	00f75e63          	bge	a4,a5,12968 <_vfprintf_r+0x2528>
   12950:	0016c703          	lbu	a4,1(a3)
   12954:	40c787bb          	subw	a5,a5,a2
   12958:	04070a63          	beqz	a4,129ac <_vfprintf_r+0x256c>
   1295c:	0015051b          	addw	a0,a0,1
   12960:	00168693          	add	a3,a3,1
   12964:	feb712e3          	bne	a4,a1,12948 <_vfprintf_r+0x2508>
   12968:	02f13823          	sd	a5,48(sp)
   1296c:	06d13c23          	sd	a3,120(sp)
   12970:	04a13023          	sd	a0,64(sp)
   12974:	05013423          	sd	a6,72(sp)
   12978:	04013703          	ld	a4,64(sp)
   1297c:	04813783          	ld	a5,72(sp)
   12980:	08013583          	ld	a1,128(sp)
   12984:	00e7853b          	addw	a0,a5,a4
   12988:	1e00f0ef          	jal	21b68 <__muldi3>
   1298c:	01a5073b          	addw	a4,a0,s10
   12990:	00070d1b          	sext.w	s10,a4
   12994:	fffd4613          	not	a2,s10
   12998:	43f65613          	sra	a2,a2,0x3f
   1299c:	00c77733          	and	a4,a4,a2
   129a0:	09013903          	ld	s2,144(sp)
   129a4:	00070c1b          	sext.w	s8,a4
   129a8:	f6cff06f          	j	12114 <_vfprintf_r+0x1cd4>
   129ac:	0006c703          	lbu	a4,0(a3)
   129b0:	0018081b          	addw	a6,a6,1
   129b4:	fb1ff06f          	j	12964 <_vfprintf_r+0x2524>
   129b8:	05813703          	ld	a4,88(sp)
   129bc:	06600c93          	li	s9,102
   129c0:	00f706bb          	addw	a3,a4,a5
   129c4:	00668d3b          	addw	s10,a3,t1
   129c8:	d89ff06f          	j	12750 <_vfprintf_r+0x2310>
   129cc:	07000693          	li	a3,112
   129d0:	e4cff06f          	j	1201c <_vfprintf_r+0x1bdc>
   129d4:	00071c63          	bnez	a4,129ec <_vfprintf_r+0x25ac>
   129d8:	09013903          	ld	s2,144(sp)
   129dc:	00100c13          	li	s8,1
   129e0:	06600c93          	li	s9,102
   129e4:	00100d13          	li	s10,1
   129e8:	b69ff06f          	j	12550 <_vfprintf_r+0x2110>
   129ec:	05813783          	ld	a5,88(sp)
   129f0:	09013903          	ld	s2,144(sp)
   129f4:	06600c93          	li	s9,102
   129f8:	0017871b          	addw	a4,a5,1
   129fc:	0067073b          	addw	a4,a4,t1
   12a00:	00070d1b          	sext.w	s10,a4
   12a04:	fffd4613          	not	a2,s10
   12a08:	43f65613          	sra	a2,a2,0x3f
   12a0c:	00c77733          	and	a4,a4,a2
   12a10:	00070c1b          	sext.w	s8,a4
   12a14:	b3dff06f          	j	12550 <_vfprintf_r+0x2110>
   12a18:	02013683          	ld	a3,32(sp)
   12a1c:	0006a703          	lw	a4,0(a3)
   12a20:	00868693          	add	a3,a3,8
   12a24:	00070313          	mv	t1,a4
   12a28:	00075463          	bgez	a4,12a30 <_vfprintf_r+0x25f0>
   12a2c:	fff00313          	li	t1,-1
   12a30:	0014ce03          	lbu	t3,1(s1)
   12a34:	00030a9b          	sext.w	s5,t1
   12a38:	02d13023          	sd	a3,32(sp)
   12a3c:	00078493          	mv	s1,a5
   12a40:	badfd06f          	j	105ec <_vfprintf_r+0x1ac>
   12a44:	00200793          	li	a5,2
   12a48:	06f13823          	sd	a5,112(sp)
   12a4c:	e7cff06f          	j	120c8 <_vfprintf_r+0x1c88>
   12a50:	04013423          	sd	zero,72(sp)
   12a54:	04013023          	sd	zero,64(sp)
   12a58:	f21ff06f          	j	12978 <_vfprintf_r+0x2538>
   12a5c:	00013703          	ld	a4,0(sp)
   12a60:	01075783          	lhu	a5,16(a4)
   12a64:	0407e793          	or	a5,a5,64
   12a68:	00f71823          	sh	a5,16(a4)
   12a6c:	d49fd06f          	j	107b4 <_vfprintf_r+0x374>

0000000000012a70 <vfprintf>:
   12a70:	00050793          	mv	a5,a0
   12a74:	7581b503          	ld	a0,1880(gp) # 24d70 <_impure_ptr>
   12a78:	00060693          	mv	a3,a2
   12a7c:	00058613          	mv	a2,a1
   12a80:	00078593          	mv	a1,a5
   12a84:	9bdfd06f          	j	10440 <_vfprintf_r>

0000000000012a88 <__sbprintf>:
   12a88:	01059783          	lh	a5,16(a1)
   12a8c:	0125d703          	lhu	a4,18(a1)
   12a90:	0ac5a303          	lw	t1,172(a1)
   12a94:	ffd7f793          	and	a5,a5,-3
   12a98:	0107979b          	sllw	a5,a5,0x10
   12a9c:	0305b883          	ld	a7,48(a1)
   12aa0:	0405b803          	ld	a6,64(a1)
   12aa4:	0107171b          	sllw	a4,a4,0x10
   12aa8:	0107d79b          	srlw	a5,a5,0x10
   12aac:	b3010113          	add	sp,sp,-1232
   12ab0:	00e7e7b3          	or	a5,a5,a4
   12ab4:	4c813023          	sd	s0,1216(sp)
   12ab8:	40000713          	li	a4,1024
   12abc:	00f12823          	sw	a5,16(sp)
   12ac0:	00058413          	mv	s0,a1
   12ac4:	0b010793          	add	a5,sp,176
   12ac8:	00010593          	mv	a1,sp
   12acc:	4a913c23          	sd	s1,1208(sp)
   12ad0:	4b213823          	sd	s2,1200(sp)
   12ad4:	4c113423          	sd	ra,1224(sp)
   12ad8:	00050913          	mv	s2,a0
   12adc:	0a612623          	sw	t1,172(sp)
   12ae0:	03113823          	sd	a7,48(sp)
   12ae4:	05013023          	sd	a6,64(sp)
   12ae8:	00f13023          	sd	a5,0(sp)
   12aec:	00f13c23          	sd	a5,24(sp)
   12af0:	00e12623          	sw	a4,12(sp)
   12af4:	02e12023          	sw	a4,32(sp)
   12af8:	02012423          	sw	zero,40(sp)
   12afc:	945fd0ef          	jal	10440 <_vfprintf_r>
   12b00:	00050493          	mv	s1,a0
   12b04:	02055c63          	bgez	a0,12b3c <__sbprintf+0xb4>
   12b08:	01015783          	lhu	a5,16(sp)
   12b0c:	0407f793          	and	a5,a5,64
   12b10:	00078863          	beqz	a5,12b20 <__sbprintf+0x98>
   12b14:	01045783          	lhu	a5,16(s0)
   12b18:	0407e793          	or	a5,a5,64
   12b1c:	00f41823          	sh	a5,16(s0)
   12b20:	4c813083          	ld	ra,1224(sp)
   12b24:	4c013403          	ld	s0,1216(sp)
   12b28:	4b013903          	ld	s2,1200(sp)
   12b2c:	00048513          	mv	a0,s1
   12b30:	4b813483          	ld	s1,1208(sp)
   12b34:	4d010113          	add	sp,sp,1232
   12b38:	00008067          	ret
   12b3c:	00010593          	mv	a1,sp
   12b40:	00090513          	mv	a0,s2
   12b44:	4c4000ef          	jal	13008 <_fflush_r>
   12b48:	fc0500e3          	beqz	a0,12b08 <__sbprintf+0x80>
   12b4c:	fff00493          	li	s1,-1
   12b50:	fb9ff06f          	j	12b08 <__sbprintf+0x80>

0000000000012b54 <__swsetup_r>:
   12b54:	7581b783          	ld	a5,1880(gp) # 24d70 <_impure_ptr>
   12b58:	fe010113          	add	sp,sp,-32
   12b5c:	00813823          	sd	s0,16(sp)
   12b60:	00913423          	sd	s1,8(sp)
   12b64:	00113c23          	sd	ra,24(sp)
   12b68:	00050493          	mv	s1,a0
   12b6c:	00058413          	mv	s0,a1
   12b70:	00078663          	beqz	a5,12b7c <__swsetup_r+0x28>
   12b74:	0507a703          	lw	a4,80(a5)
   12b78:	08070063          	beqz	a4,12bf8 <__swsetup_r+0xa4>
   12b7c:	01041783          	lh	a5,16(s0)
   12b80:	0087f713          	and	a4,a5,8
   12b84:	08070463          	beqz	a4,12c0c <__swsetup_r+0xb8>
   12b88:	01843703          	ld	a4,24(s0)
   12b8c:	0a070063          	beqz	a4,12c2c <__swsetup_r+0xd8>
   12b90:	0017f693          	and	a3,a5,1
   12b94:	02068863          	beqz	a3,12bc4 <__swsetup_r+0x70>
   12b98:	02042683          	lw	a3,32(s0)
   12b9c:	00042623          	sw	zero,12(s0)
   12ba0:	00000513          	li	a0,0
   12ba4:	40d006bb          	negw	a3,a3
   12ba8:	02d42423          	sw	a3,40(s0)
   12bac:	02070a63          	beqz	a4,12be0 <__swsetup_r+0x8c>
   12bb0:	01813083          	ld	ra,24(sp)
   12bb4:	01013403          	ld	s0,16(sp)
   12bb8:	00813483          	ld	s1,8(sp)
   12bbc:	02010113          	add	sp,sp,32
   12bc0:	00008067          	ret
   12bc4:	0027f693          	and	a3,a5,2
   12bc8:	00000613          	li	a2,0
   12bcc:	00069463          	bnez	a3,12bd4 <__swsetup_r+0x80>
   12bd0:	02042603          	lw	a2,32(s0)
   12bd4:	00c42623          	sw	a2,12(s0)
   12bd8:	00000513          	li	a0,0
   12bdc:	fc071ae3          	bnez	a4,12bb0 <__swsetup_r+0x5c>
   12be0:	0807f713          	and	a4,a5,128
   12be4:	fc0706e3          	beqz	a4,12bb0 <__swsetup_r+0x5c>
   12be8:	0407e793          	or	a5,a5,64
   12bec:	00f41823          	sh	a5,16(s0)
   12bf0:	fff00513          	li	a0,-1
   12bf4:	fbdff06f          	j	12bb0 <__swsetup_r+0x5c>
   12bf8:	00078513          	mv	a0,a5
   12bfc:	039000ef          	jal	13434 <__sinit>
   12c00:	01041783          	lh	a5,16(s0)
   12c04:	0087f713          	and	a4,a5,8
   12c08:	f80710e3          	bnez	a4,12b88 <__swsetup_r+0x34>
   12c0c:	0107f713          	and	a4,a5,16
   12c10:	06070a63          	beqz	a4,12c84 <__swsetup_r+0x130>
   12c14:	0047f713          	and	a4,a5,4
   12c18:	02071c63          	bnez	a4,12c50 <__swsetup_r+0xfc>
   12c1c:	01843703          	ld	a4,24(s0)
   12c20:	0087e793          	or	a5,a5,8
   12c24:	00f41823          	sh	a5,16(s0)
   12c28:	f60714e3          	bnez	a4,12b90 <__swsetup_r+0x3c>
   12c2c:	2807f693          	and	a3,a5,640
   12c30:	20000613          	li	a2,512
   12c34:	f4c68ee3          	beq	a3,a2,12b90 <__swsetup_r+0x3c>
   12c38:	00040593          	mv	a1,s0
   12c3c:	00048513          	mv	a0,s1
   12c40:	425030ef          	jal	16864 <__smakebuf_r>
   12c44:	01041783          	lh	a5,16(s0)
   12c48:	01843703          	ld	a4,24(s0)
   12c4c:	f45ff06f          	j	12b90 <__swsetup_r+0x3c>
   12c50:	05843583          	ld	a1,88(s0)
   12c54:	00058e63          	beqz	a1,12c70 <__swsetup_r+0x11c>
   12c58:	07440713          	add	a4,s0,116
   12c5c:	00e58863          	beq	a1,a4,12c6c <__swsetup_r+0x118>
   12c60:	00048513          	mv	a0,s1
   12c64:	1a9000ef          	jal	1360c <_free_r>
   12c68:	01041783          	lh	a5,16(s0)
   12c6c:	04043c23          	sd	zero,88(s0)
   12c70:	01843703          	ld	a4,24(s0)
   12c74:	fdb7f793          	and	a5,a5,-37
   12c78:	00042423          	sw	zero,8(s0)
   12c7c:	00e43023          	sd	a4,0(s0)
   12c80:	fa1ff06f          	j	12c20 <__swsetup_r+0xcc>
   12c84:	00900713          	li	a4,9
   12c88:	00e4a023          	sw	a4,0(s1)
   12c8c:	0407e793          	or	a5,a5,64
   12c90:	f5dff06f          	j	12bec <__swsetup_r+0x98>

0000000000012c94 <__call_exitprocs>:
   12c94:	fb010113          	add	sp,sp,-80
   12c98:	03413023          	sd	s4,32(sp)
   12c9c:	7481ba03          	ld	s4,1864(gp) # 24d60 <_global_impure_ptr>
   12ca0:	03213823          	sd	s2,48(sp)
   12ca4:	04113423          	sd	ra,72(sp)
   12ca8:	1f8a3903          	ld	s2,504(s4)
   12cac:	04813023          	sd	s0,64(sp)
   12cb0:	02913c23          	sd	s1,56(sp)
   12cb4:	03313423          	sd	s3,40(sp)
   12cb8:	01513c23          	sd	s5,24(sp)
   12cbc:	01613823          	sd	s6,16(sp)
   12cc0:	01713423          	sd	s7,8(sp)
   12cc4:	01813023          	sd	s8,0(sp)
   12cc8:	04090063          	beqz	s2,12d08 <__call_exitprocs+0x74>
   12ccc:	00050b13          	mv	s6,a0
   12cd0:	00058b93          	mv	s7,a1
   12cd4:	00100a93          	li	s5,1
   12cd8:	fff00993          	li	s3,-1
   12cdc:	00892483          	lw	s1,8(s2)
   12ce0:	fff4841b          	addw	s0,s1,-1
   12ce4:	02044263          	bltz	s0,12d08 <__call_exitprocs+0x74>
   12ce8:	00349493          	sll	s1,s1,0x3
   12cec:	009904b3          	add	s1,s2,s1
   12cf0:	040b8463          	beqz	s7,12d38 <__call_exitprocs+0xa4>
   12cf4:	2084b783          	ld	a5,520(s1)
   12cf8:	05778063          	beq	a5,s7,12d38 <__call_exitprocs+0xa4>
   12cfc:	fff4041b          	addw	s0,s0,-1
   12d00:	ff848493          	add	s1,s1,-8
   12d04:	ff3416e3          	bne	s0,s3,12cf0 <__call_exitprocs+0x5c>
   12d08:	04813083          	ld	ra,72(sp)
   12d0c:	04013403          	ld	s0,64(sp)
   12d10:	03813483          	ld	s1,56(sp)
   12d14:	03013903          	ld	s2,48(sp)
   12d18:	02813983          	ld	s3,40(sp)
   12d1c:	02013a03          	ld	s4,32(sp)
   12d20:	01813a83          	ld	s5,24(sp)
   12d24:	01013b03          	ld	s6,16(sp)
   12d28:	00813b83          	ld	s7,8(sp)
   12d2c:	00013c03          	ld	s8,0(sp)
   12d30:	05010113          	add	sp,sp,80
   12d34:	00008067          	ret
   12d38:	00892783          	lw	a5,8(s2)
   12d3c:	0084b703          	ld	a4,8(s1)
   12d40:	fff7879b          	addw	a5,a5,-1
   12d44:	06878263          	beq	a5,s0,12da8 <__call_exitprocs+0x114>
   12d48:	0004b423          	sd	zero,8(s1)
   12d4c:	fa0708e3          	beqz	a4,12cfc <__call_exitprocs+0x68>
   12d50:	31092783          	lw	a5,784(s2)
   12d54:	008a96bb          	sllw	a3,s5,s0
   12d58:	00892c03          	lw	s8,8(s2)
   12d5c:	00d7f7b3          	and	a5,a5,a3
   12d60:	0007879b          	sext.w	a5,a5
   12d64:	02079263          	bnez	a5,12d88 <__call_exitprocs+0xf4>
   12d68:	000700e7          	jalr	a4
   12d6c:	00892703          	lw	a4,8(s2)
   12d70:	1f8a3783          	ld	a5,504(s4)
   12d74:	01871463          	bne	a4,s8,12d7c <__call_exitprocs+0xe8>
   12d78:	f92782e3          	beq	a5,s2,12cfc <__call_exitprocs+0x68>
   12d7c:	f80786e3          	beqz	a5,12d08 <__call_exitprocs+0x74>
   12d80:	00078913          	mv	s2,a5
   12d84:	f59ff06f          	j	12cdc <__call_exitprocs+0x48>
   12d88:	31492783          	lw	a5,788(s2)
   12d8c:	1084b583          	ld	a1,264(s1)
   12d90:	00d7f7b3          	and	a5,a5,a3
   12d94:	0007879b          	sext.w	a5,a5
   12d98:	00079c63          	bnez	a5,12db0 <__call_exitprocs+0x11c>
   12d9c:	000b0513          	mv	a0,s6
   12da0:	000700e7          	jalr	a4
   12da4:	fc9ff06f          	j	12d6c <__call_exitprocs+0xd8>
   12da8:	00892423          	sw	s0,8(s2)
   12dac:	fa1ff06f          	j	12d4c <__call_exitprocs+0xb8>
   12db0:	00058513          	mv	a0,a1
   12db4:	000700e7          	jalr	a4
   12db8:	fb5ff06f          	j	12d6c <__call_exitprocs+0xd8>

0000000000012dbc <__sflush_r>:
   12dbc:	01059783          	lh	a5,16(a1)
   12dc0:	fd010113          	add	sp,sp,-48
   12dc4:	02813023          	sd	s0,32(sp)
   12dc8:	01313423          	sd	s3,8(sp)
   12dcc:	02113423          	sd	ra,40(sp)
   12dd0:	00913c23          	sd	s1,24(sp)
   12dd4:	01213823          	sd	s2,16(sp)
   12dd8:	0087f713          	and	a4,a5,8
   12ddc:	00058413          	mv	s0,a1
   12de0:	00050993          	mv	s3,a0
   12de4:	12071263          	bnez	a4,12f08 <__sflush_r+0x14c>
   12de8:	00001737          	lui	a4,0x1
   12dec:	80070713          	add	a4,a4,-2048 # 800 <exit-0xf8e8>
   12df0:	0085a683          	lw	a3,8(a1)
   12df4:	00e7e733          	or	a4,a5,a4
   12df8:	00e59823          	sh	a4,16(a1)
   12dfc:	18d05863          	blez	a3,12f8c <__sflush_r+0x1d0>
   12e00:	04843803          	ld	a6,72(s0)
   12e04:	0e080263          	beqz	a6,12ee8 <__sflush_r+0x12c>
   12e08:	00c7d793          	srl	a5,a5,0xc
   12e0c:	0009a483          	lw	s1,0(s3)
   12e10:	0017f793          	and	a5,a5,1
   12e14:	0009a023          	sw	zero,0(s3)
   12e18:	03043583          	ld	a1,48(s0)
   12e1c:	18079063          	bnez	a5,12f9c <__sflush_r+0x1e0>
   12e20:	00000613          	li	a2,0
   12e24:	00100693          	li	a3,1
   12e28:	00098513          	mv	a0,s3
   12e2c:	000800e7          	jalr	a6
   12e30:	fff00793          	li	a5,-1
   12e34:	00050613          	mv	a2,a0
   12e38:	1af50063          	beq	a0,a5,12fd8 <__sflush_r+0x21c>
   12e3c:	01041703          	lh	a4,16(s0)
   12e40:	04843803          	ld	a6,72(s0)
   12e44:	03043583          	ld	a1,48(s0)
   12e48:	00477713          	and	a4,a4,4
   12e4c:	00070e63          	beqz	a4,12e68 <__sflush_r+0xac>
   12e50:	00842703          	lw	a4,8(s0)
   12e54:	05843783          	ld	a5,88(s0)
   12e58:	40e60633          	sub	a2,a2,a4
   12e5c:	00078663          	beqz	a5,12e68 <__sflush_r+0xac>
   12e60:	07042783          	lw	a5,112(s0)
   12e64:	40f60633          	sub	a2,a2,a5
   12e68:	00000693          	li	a3,0
   12e6c:	00098513          	mv	a0,s3
   12e70:	000800e7          	jalr	a6
   12e74:	fff00793          	li	a5,-1
   12e78:	12f51663          	bne	a0,a5,12fa4 <__sflush_r+0x1e8>
   12e7c:	0009a683          	lw	a3,0(s3)
   12e80:	01d00793          	li	a5,29
   12e84:	0cd7ee63          	bltu	a5,a3,12f60 <__sflush_r+0x1a4>
   12e88:	dfc00737          	lui	a4,0xdfc00
   12e8c:	ffe70713          	add	a4,a4,-2 # ffffffffdfbffffe <__BSS_END__+0xffffffffdfbdb1e6>
   12e90:	40d75733          	sra	a4,a4,a3
   12e94:	00177713          	and	a4,a4,1
   12e98:	01041783          	lh	a5,16(s0)
   12e9c:	0c071463          	bnez	a4,12f64 <__sflush_r+0x1a8>
   12ea0:	01843603          	ld	a2,24(s0)
   12ea4:	fffff737          	lui	a4,0xfffff
   12ea8:	7ff70713          	add	a4,a4,2047 # fffffffffffff7ff <__BSS_END__+0xfffffffffffda9e7>
   12eac:	00e7f733          	and	a4,a5,a4
   12eb0:	00c7d793          	srl	a5,a5,0xc
   12eb4:	00e41823          	sh	a4,16(s0)
   12eb8:	00042423          	sw	zero,8(s0)
   12ebc:	00c43023          	sd	a2,0(s0)
   12ec0:	0017f793          	and	a5,a5,1
   12ec4:	12079c63          	bnez	a5,12ffc <__sflush_r+0x240>
   12ec8:	05843583          	ld	a1,88(s0)
   12ecc:	0099a023          	sw	s1,0(s3)
   12ed0:	00058c63          	beqz	a1,12ee8 <__sflush_r+0x12c>
   12ed4:	07440793          	add	a5,s0,116
   12ed8:	00f58663          	beq	a1,a5,12ee4 <__sflush_r+0x128>
   12edc:	00098513          	mv	a0,s3
   12ee0:	72c000ef          	jal	1360c <_free_r>
   12ee4:	04043c23          	sd	zero,88(s0)
   12ee8:	00000513          	li	a0,0
   12eec:	02813083          	ld	ra,40(sp)
   12ef0:	02013403          	ld	s0,32(sp)
   12ef4:	01813483          	ld	s1,24(sp)
   12ef8:	01013903          	ld	s2,16(sp)
   12efc:	00813983          	ld	s3,8(sp)
   12f00:	03010113          	add	sp,sp,48
   12f04:	00008067          	ret
   12f08:	0185b903          	ld	s2,24(a1)
   12f0c:	fc090ee3          	beqz	s2,12ee8 <__sflush_r+0x12c>
   12f10:	0005b483          	ld	s1,0(a1)
   12f14:	0037f793          	and	a5,a5,3
   12f18:	0125b023          	sd	s2,0(a1)
   12f1c:	412484bb          	subw	s1,s1,s2
   12f20:	00000713          	li	a4,0
   12f24:	00079463          	bnez	a5,12f2c <__sflush_r+0x170>
   12f28:	0205a703          	lw	a4,32(a1)
   12f2c:	00e42623          	sw	a4,12(s0)
   12f30:	00904863          	bgtz	s1,12f40 <__sflush_r+0x184>
   12f34:	fb5ff06f          	j	12ee8 <__sflush_r+0x12c>
   12f38:	00a90933          	add	s2,s2,a0
   12f3c:	fa9056e3          	blez	s1,12ee8 <__sflush_r+0x12c>
   12f40:	04043783          	ld	a5,64(s0)
   12f44:	03043583          	ld	a1,48(s0)
   12f48:	00048693          	mv	a3,s1
   12f4c:	00090613          	mv	a2,s2
   12f50:	00098513          	mv	a0,s3
   12f54:	000780e7          	jalr	a5
   12f58:	40a484bb          	subw	s1,s1,a0
   12f5c:	fca04ee3          	bgtz	a0,12f38 <__sflush_r+0x17c>
   12f60:	01041783          	lh	a5,16(s0)
   12f64:	0407e793          	or	a5,a5,64
   12f68:	02813083          	ld	ra,40(sp)
   12f6c:	00f41823          	sh	a5,16(s0)
   12f70:	02013403          	ld	s0,32(sp)
   12f74:	01813483          	ld	s1,24(sp)
   12f78:	01013903          	ld	s2,16(sp)
   12f7c:	00813983          	ld	s3,8(sp)
   12f80:	fff00513          	li	a0,-1
   12f84:	03010113          	add	sp,sp,48
   12f88:	00008067          	ret
   12f8c:	0705a683          	lw	a3,112(a1)
   12f90:	e6d048e3          	bgtz	a3,12e00 <__sflush_r+0x44>
   12f94:	00000513          	li	a0,0
   12f98:	f55ff06f          	j	12eec <__sflush_r+0x130>
   12f9c:	09043603          	ld	a2,144(s0)
   12fa0:	ea9ff06f          	j	12e48 <__sflush_r+0x8c>
   12fa4:	01041783          	lh	a5,16(s0)
   12fa8:	01843683          	ld	a3,24(s0)
   12fac:	fffff737          	lui	a4,0xfffff
   12fb0:	7ff70713          	add	a4,a4,2047 # fffffffffffff7ff <__BSS_END__+0xfffffffffffda9e7>
   12fb4:	00e7f733          	and	a4,a5,a4
   12fb8:	00c7d793          	srl	a5,a5,0xc
   12fbc:	00e41823          	sh	a4,16(s0)
   12fc0:	00042423          	sw	zero,8(s0)
   12fc4:	00d43023          	sd	a3,0(s0)
   12fc8:	0017f793          	and	a5,a5,1
   12fcc:	ee078ee3          	beqz	a5,12ec8 <__sflush_r+0x10c>
   12fd0:	08a43823          	sd	a0,144(s0)
   12fd4:	ef5ff06f          	j	12ec8 <__sflush_r+0x10c>
   12fd8:	0009a783          	lw	a5,0(s3)
   12fdc:	e60780e3          	beqz	a5,12e3c <__sflush_r+0x80>
   12fe0:	01d00713          	li	a4,29
   12fe4:	00e78663          	beq	a5,a4,12ff0 <__sflush_r+0x234>
   12fe8:	01600713          	li	a4,22
   12fec:	f6e79ae3          	bne	a5,a4,12f60 <__sflush_r+0x1a4>
   12ff0:	0099a023          	sw	s1,0(s3)
   12ff4:	00000513          	li	a0,0
   12ff8:	ef5ff06f          	j	12eec <__sflush_r+0x130>
   12ffc:	ec0696e3          	bnez	a3,12ec8 <__sflush_r+0x10c>
   13000:	08a43823          	sd	a0,144(s0)
   13004:	ec5ff06f          	j	12ec8 <__sflush_r+0x10c>

0000000000013008 <_fflush_r>:
   13008:	fe010113          	add	sp,sp,-32
   1300c:	00813823          	sd	s0,16(sp)
   13010:	00113c23          	sd	ra,24(sp)
   13014:	00050413          	mv	s0,a0
   13018:	00050663          	beqz	a0,13024 <_fflush_r+0x1c>
   1301c:	05052783          	lw	a5,80(a0)
   13020:	02078063          	beqz	a5,13040 <_fflush_r+0x38>
   13024:	01059783          	lh	a5,16(a1)
   13028:	02079663          	bnez	a5,13054 <_fflush_r+0x4c>
   1302c:	01813083          	ld	ra,24(sp)
   13030:	01013403          	ld	s0,16(sp)
   13034:	00000513          	li	a0,0
   13038:	02010113          	add	sp,sp,32
   1303c:	00008067          	ret
   13040:	00b13423          	sd	a1,8(sp)
   13044:	3f0000ef          	jal	13434 <__sinit>
   13048:	00813583          	ld	a1,8(sp)
   1304c:	01059783          	lh	a5,16(a1)
   13050:	fc078ee3          	beqz	a5,1302c <_fflush_r+0x24>
   13054:	00040513          	mv	a0,s0
   13058:	01013403          	ld	s0,16(sp)
   1305c:	01813083          	ld	ra,24(sp)
   13060:	02010113          	add	sp,sp,32
   13064:	d59ff06f          	j	12dbc <__sflush_r>

0000000000013068 <fflush>:
   13068:	06050663          	beqz	a0,130d4 <fflush+0x6c>
   1306c:	fe010113          	add	sp,sp,-32
   13070:	00813823          	sd	s0,16(sp)
   13074:	00050413          	mv	s0,a0
   13078:	7581b503          	ld	a0,1880(gp) # 24d70 <_impure_ptr>
   1307c:	00113c23          	sd	ra,24(sp)
   13080:	00050663          	beqz	a0,1308c <fflush+0x24>
   13084:	05052783          	lw	a5,80(a0)
   13088:	02078a63          	beqz	a5,130bc <fflush+0x54>
   1308c:	01041783          	lh	a5,16(s0)
   13090:	00079c63          	bnez	a5,130a8 <fflush+0x40>
   13094:	01813083          	ld	ra,24(sp)
   13098:	01013403          	ld	s0,16(sp)
   1309c:	00000513          	li	a0,0
   130a0:	02010113          	add	sp,sp,32
   130a4:	00008067          	ret
   130a8:	00040593          	mv	a1,s0
   130ac:	01013403          	ld	s0,16(sp)
   130b0:	01813083          	ld	ra,24(sp)
   130b4:	02010113          	add	sp,sp,32
   130b8:	d05ff06f          	j	12dbc <__sflush_r>
   130bc:	00a13423          	sd	a0,8(sp)
   130c0:	374000ef          	jal	13434 <__sinit>
   130c4:	01041783          	lh	a5,16(s0)
   130c8:	00813503          	ld	a0,8(sp)
   130cc:	fc0784e3          	beqz	a5,13094 <fflush+0x2c>
   130d0:	fd9ff06f          	j	130a8 <fflush+0x40>
   130d4:	7481b503          	ld	a0,1864(gp) # 24d60 <_global_impure_ptr>
   130d8:	000135b7          	lui	a1,0x13
   130dc:	00858593          	add	a1,a1,8 # 13008 <_fflush_r>
   130e0:	10d0006f          	j	139ec <_fwalk_reent>

00000000000130e4 <__fp_lock>:
   130e4:	00000513          	li	a0,0
   130e8:	00008067          	ret

00000000000130ec <_cleanup_r>:
   130ec:	0001d5b7          	lui	a1,0x1d
   130f0:	be858593          	add	a1,a1,-1048 # 1cbe8 <_fclose_r>
   130f4:	0f90006f          	j	139ec <_fwalk_reent>

00000000000130f8 <__fp_unlock>:
   130f8:	00000513          	li	a0,0
   130fc:	00008067          	ret

0000000000013100 <__sinit.part.0>:
   13100:	fc010113          	add	sp,sp,-64
   13104:	000137b7          	lui	a5,0x13
   13108:	02113c23          	sd	ra,56(sp)
   1310c:	02813823          	sd	s0,48(sp)
   13110:	02913423          	sd	s1,40(sp)
   13114:	03213023          	sd	s2,32(sp)
   13118:	01313c23          	sd	s3,24(sp)
   1311c:	01413823          	sd	s4,16(sp)
   13120:	01513423          	sd	s5,8(sp)
   13124:	01613023          	sd	s6,0(sp)
   13128:	00853403          	ld	s0,8(a0)
   1312c:	0ec78793          	add	a5,a5,236 # 130ec <_cleanup_r>
   13130:	04f53c23          	sd	a5,88(a0)
   13134:	53850713          	add	a4,a0,1336
   13138:	00300793          	li	a5,3
   1313c:	52e53823          	sd	a4,1328(a0)
   13140:	52f52423          	sw	a5,1320(a0)
   13144:	52053023          	sd	zero,1312(a0)
   13148:	00400793          	li	a5,4
   1314c:	00050913          	mv	s2,a0
   13150:	00f42823          	sw	a5,16(s0)
   13154:	00800613          	li	a2,8
   13158:	00000593          	li	a1,0
   1315c:	00043023          	sd	zero,0(s0)
   13160:	00043423          	sd	zero,8(s0)
   13164:	0a042623          	sw	zero,172(s0)
   13168:	00043c23          	sd	zero,24(s0)
   1316c:	02042023          	sw	zero,32(s0)
   13170:	02042423          	sw	zero,40(s0)
   13174:	0a440513          	add	a0,s0,164
   13178:	960fd0ef          	jal	102d8 <memset>
   1317c:	00019b37          	lui	s6,0x19
   13180:	01093483          	ld	s1,16(s2)
   13184:	00019ab7          	lui	s5,0x19
   13188:	00019a37          	lui	s4,0x19
   1318c:	000199b7          	lui	s3,0x19
   13190:	928b0b13          	add	s6,s6,-1752 # 18928 <__sread>
   13194:	98ca8a93          	add	s5,s5,-1652 # 1898c <__swrite>
   13198:	a14a0a13          	add	s4,s4,-1516 # 18a14 <__sseek>
   1319c:	a8c98993          	add	s3,s3,-1396 # 18a8c <__sclose>
   131a0:	000107b7          	lui	a5,0x10
   131a4:	03643c23          	sd	s6,56(s0)
   131a8:	05543023          	sd	s5,64(s0)
   131ac:	05443423          	sd	s4,72(s0)
   131b0:	05343823          	sd	s3,80(s0)
   131b4:	02843823          	sd	s0,48(s0)
   131b8:	00978793          	add	a5,a5,9 # 10009 <exit-0xdf>
   131bc:	00f4a823          	sw	a5,16(s1)
   131c0:	00800613          	li	a2,8
   131c4:	00000593          	li	a1,0
   131c8:	0004b023          	sd	zero,0(s1)
   131cc:	0004b423          	sd	zero,8(s1)
   131d0:	0a04a623          	sw	zero,172(s1)
   131d4:	0004bc23          	sd	zero,24(s1)
   131d8:	0204a023          	sw	zero,32(s1)
   131dc:	0204a423          	sw	zero,40(s1)
   131e0:	0a448513          	add	a0,s1,164
   131e4:	8f4fd0ef          	jal	102d8 <memset>
   131e8:	01893403          	ld	s0,24(s2)
   131ec:	000207b7          	lui	a5,0x20
   131f0:	0364bc23          	sd	s6,56(s1)
   131f4:	0554b023          	sd	s5,64(s1)
   131f8:	0544b423          	sd	s4,72(s1)
   131fc:	0534b823          	sd	s3,80(s1)
   13200:	0294b823          	sd	s1,48(s1)
   13204:	01278793          	add	a5,a5,18 # 20012 <__divdf3+0x23a>
   13208:	00f42823          	sw	a5,16(s0)
   1320c:	00043023          	sd	zero,0(s0)
   13210:	00043423          	sd	zero,8(s0)
   13214:	0a042623          	sw	zero,172(s0)
   13218:	00043c23          	sd	zero,24(s0)
   1321c:	02042023          	sw	zero,32(s0)
   13220:	02042423          	sw	zero,40(s0)
   13224:	0a440513          	add	a0,s0,164
   13228:	00800613          	li	a2,8
   1322c:	00000593          	li	a1,0
   13230:	8a8fd0ef          	jal	102d8 <memset>
   13234:	03813083          	ld	ra,56(sp)
   13238:	03643c23          	sd	s6,56(s0)
   1323c:	05543023          	sd	s5,64(s0)
   13240:	05443423          	sd	s4,72(s0)
   13244:	05343823          	sd	s3,80(s0)
   13248:	02843823          	sd	s0,48(s0)
   1324c:	03013403          	ld	s0,48(sp)
   13250:	00100793          	li	a5,1
   13254:	04f92823          	sw	a5,80(s2)
   13258:	02813483          	ld	s1,40(sp)
   1325c:	02013903          	ld	s2,32(sp)
   13260:	01813983          	ld	s3,24(sp)
   13264:	01013a03          	ld	s4,16(sp)
   13268:	00813a83          	ld	s5,8(sp)
   1326c:	00013b03          	ld	s6,0(sp)
   13270:	04010113          	add	sp,sp,64
   13274:	00008067          	ret

0000000000013278 <__sfmoreglue>:
   13278:	fe010113          	add	sp,sp,-32
   1327c:	fff5879b          	addw	a5,a1,-1
   13280:	00813823          	sd	s0,16(sp)
   13284:	00179413          	sll	s0,a5,0x1
   13288:	00f40433          	add	s0,s0,a5
   1328c:	00241413          	sll	s0,s0,0x2
   13290:	40f40433          	sub	s0,s0,a5
   13294:	00441413          	sll	s0,s0,0x4
   13298:	01213023          	sd	s2,0(sp)
   1329c:	00058913          	mv	s2,a1
   132a0:	0c840593          	add	a1,s0,200
   132a4:	00913423          	sd	s1,8(sp)
   132a8:	00113c23          	sd	ra,24(sp)
   132ac:	021030ef          	jal	16acc <_malloc_r>
   132b0:	00050493          	mv	s1,a0
   132b4:	02050063          	beqz	a0,132d4 <__sfmoreglue+0x5c>
   132b8:	01850513          	add	a0,a0,24
   132bc:	0004b023          	sd	zero,0(s1)
   132c0:	0124a423          	sw	s2,8(s1)
   132c4:	00a4b823          	sd	a0,16(s1)
   132c8:	0b040613          	add	a2,s0,176
   132cc:	00000593          	li	a1,0
   132d0:	808fd0ef          	jal	102d8 <memset>
   132d4:	01813083          	ld	ra,24(sp)
   132d8:	01013403          	ld	s0,16(sp)
   132dc:	00013903          	ld	s2,0(sp)
   132e0:	00048513          	mv	a0,s1
   132e4:	00813483          	ld	s1,8(sp)
   132e8:	02010113          	add	sp,sp,32
   132ec:	00008067          	ret

00000000000132f0 <__sfp>:
   132f0:	fe010113          	add	sp,sp,-32
   132f4:	01213023          	sd	s2,0(sp)
   132f8:	7481b903          	ld	s2,1864(gp) # 24d60 <_global_impure_ptr>
   132fc:	00913423          	sd	s1,8(sp)
   13300:	00113c23          	sd	ra,24(sp)
   13304:	05092783          	lw	a5,80(s2)
   13308:	00813823          	sd	s0,16(sp)
   1330c:	00050493          	mv	s1,a0
   13310:	0a078c63          	beqz	a5,133c8 <__sfp+0xd8>
   13314:	52090913          	add	s2,s2,1312
   13318:	00892703          	lw	a4,8(s2)
   1331c:	01093403          	ld	s0,16(s2)
   13320:	08e05c63          	blez	a4,133b8 <__sfp+0xc8>
   13324:	02071713          	sll	a4,a4,0x20
   13328:	02075713          	srl	a4,a4,0x20
   1332c:	00171793          	sll	a5,a4,0x1
   13330:	00e787b3          	add	a5,a5,a4
   13334:	00279793          	sll	a5,a5,0x2
   13338:	40e787b3          	sub	a5,a5,a4
   1333c:	00479793          	sll	a5,a5,0x4
   13340:	00f407b3          	add	a5,s0,a5
   13344:	00c0006f          	j	13350 <__sfp+0x60>
   13348:	0b040413          	add	s0,s0,176
   1334c:	06f40663          	beq	s0,a5,133b8 <__sfp+0xc8>
   13350:	01041703          	lh	a4,16(s0)
   13354:	fe071ae3          	bnez	a4,13348 <__sfp+0x58>
   13358:	ffff07b7          	lui	a5,0xffff0
   1335c:	00178793          	add	a5,a5,1 # ffffffffffff0001 <__BSS_END__+0xfffffffffffcb1e9>
   13360:	00f42823          	sw	a5,16(s0)
   13364:	0a042623          	sw	zero,172(s0)
   13368:	00043023          	sd	zero,0(s0)
   1336c:	00043423          	sd	zero,8(s0)
   13370:	00043c23          	sd	zero,24(s0)
   13374:	02042023          	sw	zero,32(s0)
   13378:	02042423          	sw	zero,40(s0)
   1337c:	00800613          	li	a2,8
   13380:	00000593          	li	a1,0
   13384:	0a440513          	add	a0,s0,164
   13388:	f51fc0ef          	jal	102d8 <memset>
   1338c:	04043c23          	sd	zero,88(s0)
   13390:	06042023          	sw	zero,96(s0)
   13394:	06043c23          	sd	zero,120(s0)
   13398:	08042023          	sw	zero,128(s0)
   1339c:	01813083          	ld	ra,24(sp)
   133a0:	00040513          	mv	a0,s0
   133a4:	01013403          	ld	s0,16(sp)
   133a8:	00813483          	ld	s1,8(sp)
   133ac:	00013903          	ld	s2,0(sp)
   133b0:	02010113          	add	sp,sp,32
   133b4:	00008067          	ret
   133b8:	00093403          	ld	s0,0(s2)
   133bc:	00040c63          	beqz	s0,133d4 <__sfp+0xe4>
   133c0:	00040913          	mv	s2,s0
   133c4:	f55ff06f          	j	13318 <__sfp+0x28>
   133c8:	00090513          	mv	a0,s2
   133cc:	d35ff0ef          	jal	13100 <__sinit.part.0>
   133d0:	f45ff06f          	j	13314 <__sfp+0x24>
   133d4:	2d800593          	li	a1,728
   133d8:	00048513          	mv	a0,s1
   133dc:	6f0030ef          	jal	16acc <_malloc_r>
   133e0:	00050413          	mv	s0,a0
   133e4:	02050863          	beqz	a0,13414 <__sfp+0x124>
   133e8:	01850513          	add	a0,a0,24
   133ec:	00400793          	li	a5,4
   133f0:	00043023          	sd	zero,0(s0)
   133f4:	00f42423          	sw	a5,8(s0)
   133f8:	00a43823          	sd	a0,16(s0)
   133fc:	2c000613          	li	a2,704
   13400:	00000593          	li	a1,0
   13404:	ed5fc0ef          	jal	102d8 <memset>
   13408:	00893023          	sd	s0,0(s2)
   1340c:	00040913          	mv	s2,s0
   13410:	f09ff06f          	j	13318 <__sfp+0x28>
   13414:	00093023          	sd	zero,0(s2)
   13418:	00c00793          	li	a5,12
   1341c:	00f4a023          	sw	a5,0(s1)
   13420:	f7dff06f          	j	1339c <__sfp+0xac>

0000000000013424 <_cleanup>:
   13424:	7481b503          	ld	a0,1864(gp) # 24d60 <_global_impure_ptr>
   13428:	0001d5b7          	lui	a1,0x1d
   1342c:	be858593          	add	a1,a1,-1048 # 1cbe8 <_fclose_r>
   13430:	5bc0006f          	j	139ec <_fwalk_reent>

0000000000013434 <__sinit>:
   13434:	05052783          	lw	a5,80(a0)
   13438:	00078463          	beqz	a5,13440 <__sinit+0xc>
   1343c:	00008067          	ret
   13440:	cc1ff06f          	j	13100 <__sinit.part.0>

0000000000013444 <__sfp_lock_acquire>:
   13444:	00008067          	ret

0000000000013448 <__sfp_lock_release>:
   13448:	00008067          	ret

000000000001344c <__sinit_lock_acquire>:
   1344c:	00008067          	ret

0000000000013450 <__sinit_lock_release>:
   13450:	00008067          	ret

0000000000013454 <__fp_lock_all>:
   13454:	7581b503          	ld	a0,1880(gp) # 24d70 <_impure_ptr>
   13458:	000135b7          	lui	a1,0x13
   1345c:	0e458593          	add	a1,a1,228 # 130e4 <__fp_lock>
   13460:	4cc0006f          	j	1392c <_fwalk>

0000000000013464 <__fp_unlock_all>:
   13464:	7581b503          	ld	a0,1880(gp) # 24d70 <_impure_ptr>
   13468:	000135b7          	lui	a1,0x13
   1346c:	0f858593          	add	a1,a1,248 # 130f8 <__fp_unlock>
   13470:	4bc0006f          	j	1392c <_fwalk>

0000000000013474 <__libc_fini_array>:
   13474:	fe010113          	add	sp,sp,-32
   13478:	00813823          	sd	s0,16(sp)
   1347c:	000247b7          	lui	a5,0x24
   13480:	00024437          	lui	s0,0x24
   13484:	c2878793          	add	a5,a5,-984 # 23c28 <__do_global_dtors_aux_fini_array_entry>
   13488:	c3040413          	add	s0,s0,-976 # 23c30 <impure_data>
   1348c:	40f40433          	sub	s0,s0,a5
   13490:	00913423          	sd	s1,8(sp)
   13494:	00113c23          	sd	ra,24(sp)
   13498:	40345493          	sra	s1,s0,0x3
   1349c:	02048063          	beqz	s1,134bc <__libc_fini_array+0x48>
   134a0:	ff840413          	add	s0,s0,-8
   134a4:	00f40433          	add	s0,s0,a5
   134a8:	00043783          	ld	a5,0(s0)
   134ac:	fff48493          	add	s1,s1,-1
   134b0:	ff840413          	add	s0,s0,-8
   134b4:	000780e7          	jalr	a5
   134b8:	fe0498e3          	bnez	s1,134a8 <__libc_fini_array+0x34>
   134bc:	01813083          	ld	ra,24(sp)
   134c0:	01013403          	ld	s0,16(sp)
   134c4:	00813483          	ld	s1,8(sp)
   134c8:	02010113          	add	sp,sp,32
   134cc:	00008067          	ret

00000000000134d0 <_malloc_trim_r>:
   134d0:	fd010113          	add	sp,sp,-48
   134d4:	01313423          	sd	s3,8(sp)
   134d8:	000249b7          	lui	s3,0x24
   134dc:	02813023          	sd	s0,32(sp)
   134e0:	00913c23          	sd	s1,24(sp)
   134e4:	01213823          	sd	s2,16(sp)
   134e8:	01413023          	sd	s4,0(sp)
   134ec:	02113423          	sd	ra,40(sp)
   134f0:	00058a13          	mv	s4,a1
   134f4:	00050913          	mv	s2,a0
   134f8:	52098993          	add	s3,s3,1312 # 24520 <__malloc_av_>
   134fc:	6e1030ef          	jal	173dc <__malloc_lock>
   13500:	0109b703          	ld	a4,16(s3)
   13504:	000017b7          	lui	a5,0x1
   13508:	fdf78413          	add	s0,a5,-33 # fdf <exit-0xf109>
   1350c:	00873483          	ld	s1,8(a4)
   13510:	ffc4f493          	and	s1,s1,-4
   13514:	00848433          	add	s0,s1,s0
   13518:	41440433          	sub	s0,s0,s4
   1351c:	00c45413          	srl	s0,s0,0xc
   13520:	fff40413          	add	s0,s0,-1
   13524:	00c41413          	sll	s0,s0,0xc
   13528:	00f44e63          	blt	s0,a5,13544 <_malloc_trim_r+0x74>
   1352c:	00000593          	li	a1,0
   13530:	00090513          	mv	a0,s2
   13534:	1ec050ef          	jal	18720 <_sbrk_r>
   13538:	0109b783          	ld	a5,16(s3)
   1353c:	009787b3          	add	a5,a5,s1
   13540:	02f50863          	beq	a0,a5,13570 <_malloc_trim_r+0xa0>
   13544:	00090513          	mv	a0,s2
   13548:	699030ef          	jal	173e0 <__malloc_unlock>
   1354c:	02813083          	ld	ra,40(sp)
   13550:	02013403          	ld	s0,32(sp)
   13554:	01813483          	ld	s1,24(sp)
   13558:	01013903          	ld	s2,16(sp)
   1355c:	00813983          	ld	s3,8(sp)
   13560:	00013a03          	ld	s4,0(sp)
   13564:	00000513          	li	a0,0
   13568:	03010113          	add	sp,sp,48
   1356c:	00008067          	ret
   13570:	408005b3          	neg	a1,s0
   13574:	00090513          	mv	a0,s2
   13578:	1a8050ef          	jal	18720 <_sbrk_r>
   1357c:	fff00793          	li	a5,-1
   13580:	04f50a63          	beq	a0,a5,135d4 <_malloc_trim_r+0x104>
   13584:	000257b7          	lui	a5,0x25
   13588:	df078793          	add	a5,a5,-528 # 24df0 <__malloc_current_mallinfo>
   1358c:	0007a703          	lw	a4,0(a5)
   13590:	0109b683          	ld	a3,16(s3)
   13594:	408484b3          	sub	s1,s1,s0
   13598:	0014e493          	or	s1,s1,1
   1359c:	4087073b          	subw	a4,a4,s0
   135a0:	00090513          	mv	a0,s2
   135a4:	0096b423          	sd	s1,8(a3)
   135a8:	00e7a023          	sw	a4,0(a5)
   135ac:	635030ef          	jal	173e0 <__malloc_unlock>
   135b0:	02813083          	ld	ra,40(sp)
   135b4:	02013403          	ld	s0,32(sp)
   135b8:	01813483          	ld	s1,24(sp)
   135bc:	01013903          	ld	s2,16(sp)
   135c0:	00813983          	ld	s3,8(sp)
   135c4:	00013a03          	ld	s4,0(sp)
   135c8:	00100513          	li	a0,1
   135cc:	03010113          	add	sp,sp,48
   135d0:	00008067          	ret
   135d4:	00000593          	li	a1,0
   135d8:	00090513          	mv	a0,s2
   135dc:	144050ef          	jal	18720 <_sbrk_r>
   135e0:	0109b703          	ld	a4,16(s3)
   135e4:	01f00693          	li	a3,31
   135e8:	40e507b3          	sub	a5,a0,a4
   135ec:	f4f6dce3          	bge	a3,a5,13544 <_malloc_trim_r+0x74>
   135f0:	7601b683          	ld	a3,1888(gp) # 24d78 <__malloc_sbrk_base>
   135f4:	0017e793          	or	a5,a5,1
   135f8:	00f73423          	sd	a5,8(a4)
   135fc:	40d50533          	sub	a0,a0,a3
   13600:	000256b7          	lui	a3,0x25
   13604:	dea6a823          	sw	a0,-528(a3) # 24df0 <__malloc_current_mallinfo>
   13608:	f3dff06f          	j	13544 <_malloc_trim_r+0x74>

000000000001360c <_free_r>:
   1360c:	18058863          	beqz	a1,1379c <_free_r+0x190>
   13610:	fe010113          	add	sp,sp,-32
   13614:	00813823          	sd	s0,16(sp)
   13618:	00913423          	sd	s1,8(sp)
   1361c:	00058413          	mv	s0,a1
   13620:	00050493          	mv	s1,a0
   13624:	00113c23          	sd	ra,24(sp)
   13628:	5b5030ef          	jal	173dc <__malloc_lock>
   1362c:	ff843503          	ld	a0,-8(s0)
   13630:	ff040713          	add	a4,s0,-16
   13634:	000245b7          	lui	a1,0x24
   13638:	ffe57793          	and	a5,a0,-2
   1363c:	00f70633          	add	a2,a4,a5
   13640:	52058593          	add	a1,a1,1312 # 24520 <__malloc_av_>
   13644:	00863683          	ld	a3,8(a2)
   13648:	0105b803          	ld	a6,16(a1)
   1364c:	ffc6f693          	and	a3,a3,-4
   13650:	1ac80863          	beq	a6,a2,13800 <_free_r+0x1f4>
   13654:	00d63423          	sd	a3,8(a2)
   13658:	00157513          	and	a0,a0,1
   1365c:	00d60833          	add	a6,a2,a3
   13660:	0a051463          	bnez	a0,13708 <_free_r+0xfc>
   13664:	ff043303          	ld	t1,-16(s0)
   13668:	00883803          	ld	a6,8(a6)
   1366c:	00024537          	lui	a0,0x24
   13670:	40670733          	sub	a4,a4,t1
   13674:	01073883          	ld	a7,16(a4)
   13678:	53050513          	add	a0,a0,1328 # 24530 <__malloc_av_+0x10>
   1367c:	006787b3          	add	a5,a5,t1
   13680:	00187813          	and	a6,a6,1
   13684:	14a88863          	beq	a7,a0,137d4 <_free_r+0x1c8>
   13688:	01873303          	ld	t1,24(a4)
   1368c:	0068bc23          	sd	t1,24(a7)
   13690:	01133823          	sd	a7,16(t1)
   13694:	1a080c63          	beqz	a6,1384c <_free_r+0x240>
   13698:	0017e693          	or	a3,a5,1
   1369c:	00d73423          	sd	a3,8(a4)
   136a0:	00f63023          	sd	a5,0(a2)
   136a4:	1ff00693          	li	a3,511
   136a8:	08f6e063          	bltu	a3,a5,13728 <_free_r+0x11c>
   136ac:	0037d793          	srl	a5,a5,0x3
   136b0:	0017869b          	addw	a3,a5,1
   136b4:	0016969b          	sllw	a3,a3,0x1
   136b8:	00369693          	sll	a3,a3,0x3
   136bc:	0085b803          	ld	a6,8(a1)
   136c0:	00d586b3          	add	a3,a1,a3
   136c4:	0006b503          	ld	a0,0(a3)
   136c8:	4027d61b          	sraw	a2,a5,0x2
   136cc:	00100793          	li	a5,1
   136d0:	00c797b3          	sll	a5,a5,a2
   136d4:	0107e7b3          	or	a5,a5,a6
   136d8:	ff068613          	add	a2,a3,-16
   136dc:	00c73c23          	sd	a2,24(a4)
   136e0:	00a73823          	sd	a0,16(a4)
   136e4:	00f5b423          	sd	a5,8(a1)
   136e8:	00e6b023          	sd	a4,0(a3)
   136ec:	00e53c23          	sd	a4,24(a0)
   136f0:	01013403          	ld	s0,16(sp)
   136f4:	01813083          	ld	ra,24(sp)
   136f8:	00048513          	mv	a0,s1
   136fc:	00813483          	ld	s1,8(sp)
   13700:	02010113          	add	sp,sp,32
   13704:	4dd0306f          	j	173e0 <__malloc_unlock>
   13708:	00883503          	ld	a0,8(a6)
   1370c:	00157513          	and	a0,a0,1
   13710:	08050863          	beqz	a0,137a0 <_free_r+0x194>
   13714:	0017e693          	or	a3,a5,1
   13718:	fed43c23          	sd	a3,-8(s0)
   1371c:	00f63023          	sd	a5,0(a2)
   13720:	1ff00693          	li	a3,511
   13724:	f8f6f4e3          	bgeu	a3,a5,136ac <_free_r+0xa0>
   13728:	0097d693          	srl	a3,a5,0x9
   1372c:	00400613          	li	a2,4
   13730:	12d66263          	bltu	a2,a3,13854 <_free_r+0x248>
   13734:	0067d693          	srl	a3,a5,0x6
   13738:	0396851b          	addw	a0,a3,57
   1373c:	0015151b          	sllw	a0,a0,0x1
   13740:	0386861b          	addw	a2,a3,56
   13744:	00351513          	sll	a0,a0,0x3
   13748:	00a58533          	add	a0,a1,a0
   1374c:	00053683          	ld	a3,0(a0)
   13750:	ff050513          	add	a0,a0,-16
   13754:	00d51863          	bne	a0,a3,13764 <_free_r+0x158>
   13758:	15c0006f          	j	138b4 <_free_r+0x2a8>
   1375c:	0106b683          	ld	a3,16(a3)
   13760:	00d50863          	beq	a0,a3,13770 <_free_r+0x164>
   13764:	0086b603          	ld	a2,8(a3)
   13768:	ffc67613          	and	a2,a2,-4
   1376c:	fec7e8e3          	bltu	a5,a2,1375c <_free_r+0x150>
   13770:	0186b503          	ld	a0,24(a3)
   13774:	00a73c23          	sd	a0,24(a4)
   13778:	00d73823          	sd	a3,16(a4)
   1377c:	01013403          	ld	s0,16(sp)
   13780:	00e53823          	sd	a4,16(a0)
   13784:	01813083          	ld	ra,24(sp)
   13788:	00048513          	mv	a0,s1
   1378c:	00813483          	ld	s1,8(sp)
   13790:	00e6bc23          	sd	a4,24(a3)
   13794:	02010113          	add	sp,sp,32
   13798:	4490306f          	j	173e0 <__malloc_unlock>
   1379c:	00008067          	ret
   137a0:	00024537          	lui	a0,0x24
   137a4:	00d787b3          	add	a5,a5,a3
   137a8:	53050513          	add	a0,a0,1328 # 24530 <__malloc_av_+0x10>
   137ac:	01063683          	ld	a3,16(a2)
   137b0:	0ea68063          	beq	a3,a0,13890 <_free_r+0x284>
   137b4:	01863803          	ld	a6,24(a2)
   137b8:	0017e513          	or	a0,a5,1
   137bc:	00f70633          	add	a2,a4,a5
   137c0:	0106bc23          	sd	a6,24(a3)
   137c4:	00d83823          	sd	a3,16(a6)
   137c8:	00a73423          	sd	a0,8(a4)
   137cc:	00f63023          	sd	a5,0(a2)
   137d0:	ed5ff06f          	j	136a4 <_free_r+0x98>
   137d4:	14081463          	bnez	a6,1391c <_free_r+0x310>
   137d8:	01063583          	ld	a1,16(a2)
   137dc:	01863603          	ld	a2,24(a2)
   137e0:	00f686b3          	add	a3,a3,a5
   137e4:	0016e793          	or	a5,a3,1
   137e8:	00c5bc23          	sd	a2,24(a1)
   137ec:	00b63823          	sd	a1,16(a2)
   137f0:	00f73423          	sd	a5,8(a4)
   137f4:	00d70733          	add	a4,a4,a3
   137f8:	00d73023          	sd	a3,0(a4)
   137fc:	ef5ff06f          	j	136f0 <_free_r+0xe4>
   13800:	00157513          	and	a0,a0,1
   13804:	00d786b3          	add	a3,a5,a3
   13808:	02051063          	bnez	a0,13828 <_free_r+0x21c>
   1380c:	ff043503          	ld	a0,-16(s0)
   13810:	40a70733          	sub	a4,a4,a0
   13814:	01873783          	ld	a5,24(a4)
   13818:	01073603          	ld	a2,16(a4)
   1381c:	00a686b3          	add	a3,a3,a0
   13820:	00f63c23          	sd	a5,24(a2)
   13824:	00c7b823          	sd	a2,16(a5)
   13828:	0016e613          	or	a2,a3,1
   1382c:	7681b783          	ld	a5,1896(gp) # 24d80 <__malloc_trim_threshold>
   13830:	00c73423          	sd	a2,8(a4)
   13834:	00e5b823          	sd	a4,16(a1)
   13838:	eaf6ece3          	bltu	a3,a5,136f0 <_free_r+0xe4>
   1383c:	7881b583          	ld	a1,1928(gp) # 24da0 <__malloc_top_pad>
   13840:	00048513          	mv	a0,s1
   13844:	c8dff0ef          	jal	134d0 <_malloc_trim_r>
   13848:	ea9ff06f          	j	136f0 <_free_r+0xe4>
   1384c:	00d787b3          	add	a5,a5,a3
   13850:	f5dff06f          	j	137ac <_free_r+0x1a0>
   13854:	01400613          	li	a2,20
   13858:	02d67263          	bgeu	a2,a3,1387c <_free_r+0x270>
   1385c:	05400613          	li	a2,84
   13860:	06d66863          	bltu	a2,a3,138d0 <_free_r+0x2c4>
   13864:	00c7d693          	srl	a3,a5,0xc
   13868:	06f6851b          	addw	a0,a3,111
   1386c:	0015151b          	sllw	a0,a0,0x1
   13870:	06e6861b          	addw	a2,a3,110
   13874:	00351513          	sll	a0,a0,0x3
   13878:	ed1ff06f          	j	13748 <_free_r+0x13c>
   1387c:	05c6851b          	addw	a0,a3,92
   13880:	0015151b          	sllw	a0,a0,0x1
   13884:	05b6861b          	addw	a2,a3,91
   13888:	00351513          	sll	a0,a0,0x3
   1388c:	ebdff06f          	j	13748 <_free_r+0x13c>
   13890:	02e5b423          	sd	a4,40(a1)
   13894:	02e5b023          	sd	a4,32(a1)
   13898:	0017e693          	or	a3,a5,1
   1389c:	00a73c23          	sd	a0,24(a4)
   138a0:	00a73823          	sd	a0,16(a4)
   138a4:	00d73423          	sd	a3,8(a4)
   138a8:	00f70733          	add	a4,a4,a5
   138ac:	00f73023          	sd	a5,0(a4)
   138b0:	e41ff06f          	j	136f0 <_free_r+0xe4>
   138b4:	0085b803          	ld	a6,8(a1)
   138b8:	4026561b          	sraw	a2,a2,0x2
   138bc:	00100793          	li	a5,1
   138c0:	00c797b3          	sll	a5,a5,a2
   138c4:	0107e7b3          	or	a5,a5,a6
   138c8:	00f5b423          	sd	a5,8(a1)
   138cc:	ea9ff06f          	j	13774 <_free_r+0x168>
   138d0:	15400613          	li	a2,340
   138d4:	00d66e63          	bltu	a2,a3,138f0 <_free_r+0x2e4>
   138d8:	00f7d693          	srl	a3,a5,0xf
   138dc:	0786851b          	addw	a0,a3,120
   138e0:	0015151b          	sllw	a0,a0,0x1
   138e4:	0776861b          	addw	a2,a3,119
   138e8:	00351513          	sll	a0,a0,0x3
   138ec:	e5dff06f          	j	13748 <_free_r+0x13c>
   138f0:	55400613          	li	a2,1364
   138f4:	00d66e63          	bltu	a2,a3,13910 <_free_r+0x304>
   138f8:	0127d693          	srl	a3,a5,0x12
   138fc:	07d6851b          	addw	a0,a3,125
   13900:	0015151b          	sllw	a0,a0,0x1
   13904:	07c6861b          	addw	a2,a3,124
   13908:	00351513          	sll	a0,a0,0x3
   1390c:	e3dff06f          	j	13748 <_free_r+0x13c>
   13910:	7f000513          	li	a0,2032
   13914:	07e00613          	li	a2,126
   13918:	e31ff06f          	j	13748 <_free_r+0x13c>
   1391c:	0017e693          	or	a3,a5,1
   13920:	00d73423          	sd	a3,8(a4)
   13924:	00f63023          	sd	a5,0(a2)
   13928:	dc9ff06f          	j	136f0 <_free_r+0xe4>

000000000001392c <_fwalk>:
   1392c:	fc010113          	add	sp,sp,-64
   13930:	03213023          	sd	s2,32(sp)
   13934:	01313c23          	sd	s3,24(sp)
   13938:	01413823          	sd	s4,16(sp)
   1393c:	01513423          	sd	s5,8(sp)
   13940:	01613023          	sd	s6,0(sp)
   13944:	02113c23          	sd	ra,56(sp)
   13948:	02813823          	sd	s0,48(sp)
   1394c:	02913423          	sd	s1,40(sp)
   13950:	00058a93          	mv	s5,a1
   13954:	52050993          	add	s3,a0,1312
   13958:	00000913          	li	s2,0
   1395c:	00100b13          	li	s6,1
   13960:	fff00a13          	li	s4,-1
   13964:	0089a783          	lw	a5,8(s3)
   13968:	0109b403          	ld	s0,16(s3)
   1396c:	04f05663          	blez	a5,139b8 <_fwalk+0x8c>
   13970:	02079793          	sll	a5,a5,0x20
   13974:	0207d793          	srl	a5,a5,0x20
   13978:	00179493          	sll	s1,a5,0x1
   1397c:	00f484b3          	add	s1,s1,a5
   13980:	00249493          	sll	s1,s1,0x2
   13984:	40f484b3          	sub	s1,s1,a5
   13988:	00449493          	sll	s1,s1,0x4
   1398c:	009404b3          	add	s1,s0,s1
   13990:	01045783          	lhu	a5,16(s0)
   13994:	00fb7e63          	bgeu	s6,a5,139b0 <_fwalk+0x84>
   13998:	01241783          	lh	a5,18(s0)
   1399c:	00040513          	mv	a0,s0
   139a0:	01478863          	beq	a5,s4,139b0 <_fwalk+0x84>
   139a4:	000a80e7          	jalr	s5
   139a8:	01256933          	or	s2,a0,s2
   139ac:	0009091b          	sext.w	s2,s2
   139b0:	0b040413          	add	s0,s0,176
   139b4:	fc849ee3          	bne	s1,s0,13990 <_fwalk+0x64>
   139b8:	0009b983          	ld	s3,0(s3)
   139bc:	fa0994e3          	bnez	s3,13964 <_fwalk+0x38>
   139c0:	03813083          	ld	ra,56(sp)
   139c4:	03013403          	ld	s0,48(sp)
   139c8:	02813483          	ld	s1,40(sp)
   139cc:	01813983          	ld	s3,24(sp)
   139d0:	01013a03          	ld	s4,16(sp)
   139d4:	00813a83          	ld	s5,8(sp)
   139d8:	00013b03          	ld	s6,0(sp)
   139dc:	00090513          	mv	a0,s2
   139e0:	02013903          	ld	s2,32(sp)
   139e4:	04010113          	add	sp,sp,64
   139e8:	00008067          	ret

00000000000139ec <_fwalk_reent>:
   139ec:	fb010113          	add	sp,sp,-80
   139f0:	03213823          	sd	s2,48(sp)
   139f4:	03313423          	sd	s3,40(sp)
   139f8:	03413023          	sd	s4,32(sp)
   139fc:	01513c23          	sd	s5,24(sp)
   13a00:	01613823          	sd	s6,16(sp)
   13a04:	01713423          	sd	s7,8(sp)
   13a08:	04113423          	sd	ra,72(sp)
   13a0c:	04813023          	sd	s0,64(sp)
   13a10:	02913c23          	sd	s1,56(sp)
   13a14:	00050913          	mv	s2,a0
   13a18:	00058a93          	mv	s5,a1
   13a1c:	52050993          	add	s3,a0,1312
   13a20:	00000b13          	li	s6,0
   13a24:	00100b93          	li	s7,1
   13a28:	fff00a13          	li	s4,-1
   13a2c:	0089a783          	lw	a5,8(s3)
   13a30:	0109b403          	ld	s0,16(s3)
   13a34:	04f05863          	blez	a5,13a84 <_fwalk_reent+0x98>
   13a38:	02079793          	sll	a5,a5,0x20
   13a3c:	0207d793          	srl	a5,a5,0x20
   13a40:	00179493          	sll	s1,a5,0x1
   13a44:	00f484b3          	add	s1,s1,a5
   13a48:	00249493          	sll	s1,s1,0x2
   13a4c:	40f484b3          	sub	s1,s1,a5
   13a50:	00449493          	sll	s1,s1,0x4
   13a54:	009404b3          	add	s1,s0,s1
   13a58:	01045783          	lhu	a5,16(s0)
   13a5c:	02fbf063          	bgeu	s7,a5,13a7c <_fwalk_reent+0x90>
   13a60:	01241783          	lh	a5,18(s0)
   13a64:	00040593          	mv	a1,s0
   13a68:	00090513          	mv	a0,s2
   13a6c:	01478863          	beq	a5,s4,13a7c <_fwalk_reent+0x90>
   13a70:	000a80e7          	jalr	s5
   13a74:	01656b33          	or	s6,a0,s6
   13a78:	000b0b1b          	sext.w	s6,s6
   13a7c:	0b040413          	add	s0,s0,176
   13a80:	fc849ce3          	bne	s1,s0,13a58 <_fwalk_reent+0x6c>
   13a84:	0009b983          	ld	s3,0(s3)
   13a88:	fa0992e3          	bnez	s3,13a2c <_fwalk_reent+0x40>
   13a8c:	04813083          	ld	ra,72(sp)
   13a90:	04013403          	ld	s0,64(sp)
   13a94:	03813483          	ld	s1,56(sp)
   13a98:	03013903          	ld	s2,48(sp)
   13a9c:	02813983          	ld	s3,40(sp)
   13aa0:	02013a03          	ld	s4,32(sp)
   13aa4:	01813a83          	ld	s5,24(sp)
   13aa8:	00813b83          	ld	s7,8(sp)
   13aac:	000b0513          	mv	a0,s6
   13ab0:	01013b03          	ld	s6,16(sp)
   13ab4:	05010113          	add	sp,sp,80
   13ab8:	00008067          	ret

0000000000013abc <eshdn1>:
   13abc:	00450693          	add	a3,a0,4
   13ac0:	00000713          	li	a4,0
   13ac4:	01a50513          	add	a0,a0,26
   13ac8:	ffff8837          	lui	a6,0xffff8
   13acc:	0006d783          	lhu	a5,0(a3)
   13ad0:	0017f613          	and	a2,a5,1
   13ad4:	00060463          	beqz	a2,13adc <eshdn1+0x20>
   13ad8:	00176713          	or	a4,a4,1
   13adc:	00277613          	and	a2,a4,2
   13ae0:	0017d793          	srl	a5,a5,0x1
   13ae4:	0017171b          	sllw	a4,a4,0x1
   13ae8:	0107e5b3          	or	a1,a5,a6
   13aec:	00060663          	beqz	a2,13af8 <eshdn1+0x3c>
   13af0:	03059793          	sll	a5,a1,0x30
   13af4:	0307d793          	srl	a5,a5,0x30
   13af8:	00f69023          	sh	a5,0(a3)
   13afc:	03071713          	sll	a4,a4,0x30
   13b00:	00268693          	add	a3,a3,2
   13b04:	03075713          	srl	a4,a4,0x30
   13b08:	fcd512e3          	bne	a0,a3,13acc <eshdn1+0x10>
   13b0c:	00008067          	ret

0000000000013b10 <eshup1>:
   13b10:	01850693          	add	a3,a0,24
   13b14:	00000713          	li	a4,0
   13b18:	00250513          	add	a0,a0,2
   13b1c:	0006d783          	lhu	a5,0(a3)
   13b20:	00f7d613          	srl	a2,a5,0xf
   13b24:	0017979b          	sllw	a5,a5,0x1
   13b28:	00060463          	beqz	a2,13b30 <eshup1+0x20>
   13b2c:	00176713          	or	a4,a4,1
   13b30:	00277613          	and	a2,a4,2
   13b34:	03079793          	sll	a5,a5,0x30
   13b38:	0017171b          	sllw	a4,a4,0x1
   13b3c:	0307d793          	srl	a5,a5,0x30
   13b40:	00060463          	beqz	a2,13b48 <eshup1+0x38>
   13b44:	0017e793          	or	a5,a5,1
   13b48:	00f69023          	sh	a5,0(a3)
   13b4c:	03071713          	sll	a4,a4,0x30
   13b50:	ffe68693          	add	a3,a3,-2
   13b54:	03075713          	srl	a4,a4,0x30
   13b58:	fcd512e3          	bne	a0,a3,13b1c <eshup1+0xc>
   13b5c:	00008067          	ret

0000000000013b60 <m16m>:
   13b60:	fa010113          	add	sp,sp,-96
   13b64:	03413823          	sd	s4,48(sp)
   13b68:	00010a37          	lui	s4,0x10
   13b6c:	04813823          	sd	s0,80(sp)
   13b70:	04913423          	sd	s1,72(sp)
   13b74:	05213023          	sd	s2,64(sp)
   13b78:	03313c23          	sd	s3,56(sp)
   13b7c:	03513423          	sd	s5,40(sp)
   13b80:	04113c23          	sd	ra,88(sp)
   13b84:	00050993          	mv	s3,a0
   13b88:	00060493          	mv	s1,a2
   13b8c:	00011b23          	sh	zero,22(sp)
   13b90:	00011c23          	sh	zero,24(sp)
   13b94:	01858913          	add	s2,a1,24
   13b98:	01810413          	add	s0,sp,24
   13b9c:	00410a93          	add	s5,sp,4
   13ba0:	fffa0a13          	add	s4,s4,-1 # ffff <exit-0xe9>
   13ba4:	00095503          	lhu	a0,0(s2)
   13ba8:	00098593          	mv	a1,s3
   13bac:	ffe40413          	add	s0,s0,-2
   13bb0:	ffe90913          	add	s2,s2,-2
   13bb4:	02050a63          	beqz	a0,13be8 <m16m+0x88>
   13bb8:	7b10d0ef          	jal	21b68 <__muldi3>
   13bbc:	00245703          	lhu	a4,2(s0)
   13bc0:	00045683          	lhu	a3,0(s0)
   13bc4:	014577b3          	and	a5,a0,s4
   13bc8:	00e787b3          	add	a5,a5,a4
   13bcc:	01055513          	srl	a0,a0,0x10
   13bd0:	0107d713          	srl	a4,a5,0x10
   13bd4:	00d50533          	add	a0,a0,a3
   13bd8:	00e50533          	add	a0,a0,a4
   13bdc:	00a41023          	sh	a0,0(s0)
   13be0:	00f41123          	sh	a5,2(s0)
   13be4:	0105551b          	srlw	a0,a0,0x10
   13be8:	fea41f23          	sh	a0,-2(s0)
   13bec:	fb541ce3          	bne	s0,s5,13ba4 <m16m+0x44>
   13bf0:	00448613          	add	a2,s1,4
   13bf4:	01a10713          	add	a4,sp,26
   13bf8:	00045783          	lhu	a5,0(s0)
   13bfc:	00240413          	add	s0,s0,2
   13c00:	00260613          	add	a2,a2,2
   13c04:	fef61f23          	sh	a5,-2(a2)
   13c08:	fe8718e3          	bne	a4,s0,13bf8 <m16m+0x98>
   13c0c:	05813083          	ld	ra,88(sp)
   13c10:	05013403          	ld	s0,80(sp)
   13c14:	04813483          	ld	s1,72(sp)
   13c18:	04013903          	ld	s2,64(sp)
   13c1c:	03813983          	ld	s3,56(sp)
   13c20:	03013a03          	ld	s4,48(sp)
   13c24:	02813a83          	ld	s5,40(sp)
   13c28:	06010113          	add	sp,sp,96
   13c2c:	00008067          	ret

0000000000013c30 <emovo.constprop.0>:
   13c30:	00055703          	lhu	a4,0(a0)
   13c34:	00255783          	lhu	a5,2(a0)
   13c38:	00070663          	beqz	a4,13c44 <emovo.constprop.0+0x14>
   13c3c:	00008737          	lui	a4,0x8
   13c40:	00e7e7b3          	or	a5,a5,a4
   13c44:	00f59923          	sh	a5,18(a1)
   13c48:	00255703          	lhu	a4,2(a0)
   13c4c:	000087b7          	lui	a5,0x8
   13c50:	fff78793          	add	a5,a5,-1 # 7fff <exit-0x80e9>
   13c54:	02f70463          	beq	a4,a5,13c7c <emovo.constprop.0+0x4c>
   13c58:	00650793          	add	a5,a0,6
   13c5c:	01058593          	add	a1,a1,16
   13c60:	01850513          	add	a0,a0,24
   13c64:	0007d703          	lhu	a4,0(a5)
   13c68:	00278793          	add	a5,a5,2
   13c6c:	ffe58593          	add	a1,a1,-2
   13c70:	00e59123          	sh	a4,2(a1)
   13c74:	fea798e3          	bne	a5,a0,13c64 <emovo.constprop.0+0x34>
   13c78:	00008067          	ret
   13c7c:	00650793          	add	a5,a0,6
   13c80:	01a50513          	add	a0,a0,26
   13c84:	0007d703          	lhu	a4,0(a5)
   13c88:	00278793          	add	a5,a5,2
   13c8c:	02071a63          	bnez	a4,13cc0 <emovo.constprop.0+0x90>
   13c90:	fef51ae3          	bne	a0,a5,13c84 <emovo.constprop.0+0x54>
   13c94:	01258713          	add	a4,a1,18
   13c98:	00058793          	mv	a5,a1
   13c9c:	00278793          	add	a5,a5,2
   13ca0:	fe079f23          	sh	zero,-2(a5)
   13ca4:	fee79ce3          	bne	a5,a4,13c9c <emovo.constprop.0+0x6c>
   13ca8:	0125d783          	lhu	a5,18(a1)
   13cac:	00008737          	lui	a4,0x8
   13cb0:	fff70713          	add	a4,a4,-1 # 7fff <exit-0x80e9>
   13cb4:	00e7e7b3          	or	a5,a5,a4
   13cb8:	00f59923          	sh	a5,18(a1)
   13cbc:	00008067          	ret
   13cc0:	01058713          	add	a4,a1,16
   13cc4:	00058793          	mv	a5,a1
   13cc8:	00278793          	add	a5,a5,2
   13ccc:	fe079f23          	sh	zero,-2(a5)
   13cd0:	fee79ce3          	bne	a5,a4,13cc8 <emovo.constprop.0+0x98>
   13cd4:	ffffc7b7          	lui	a5,0xffffc
   13cd8:	00f59823          	sh	a5,16(a1)
   13cdc:	ffff87b7          	lui	a5,0xffff8
   13ce0:	fff7c793          	not	a5,a5
   13ce4:	00f59923          	sh	a5,18(a1)
   13ce8:	00008067          	ret

0000000000013cec <enormlz>:
   13cec:	00455783          	lhu	a5,4(a0)
   13cf0:	fe010113          	add	sp,sp,-32
   13cf4:	00913423          	sd	s1,8(sp)
   13cf8:	00113c23          	sd	ra,24(sp)
   13cfc:	00813823          	sd	s0,16(sp)
   13d00:	01213023          	sd	s2,0(sp)
   13d04:	00050493          	mv	s1,a0
   13d08:	0c079663          	bnez	a5,13dd4 <enormlz+0xe8>
   13d0c:	00655783          	lhu	a5,6(a0)
   13d10:	00000413          	li	s0,0
   13d14:	00f7d713          	srl	a4,a5,0xf
   13d18:	0a071063          	bnez	a4,13db8 <enormlz+0xcc>
   13d1c:	01850693          	add	a3,a0,24
   13d20:	0a000613          	li	a2,160
   13d24:	02079663          	bnez	a5,13d50 <enormlz+0x64>
   13d28:	00448793          	add	a5,s1,4
   13d2c:	0027d703          	lhu	a4,2(a5) # ffffffffffff8002 <__BSS_END__+0xfffffffffffd31ea>
   13d30:	00278793          	add	a5,a5,2
   13d34:	fee79f23          	sh	a4,-2(a5)
   13d38:	fed79ae3          	bne	a5,a3,13d2c <enormlz+0x40>
   13d3c:	00049c23          	sh	zero,24(s1)
   13d40:	0104041b          	addw	s0,s0,16
   13d44:	06c40a63          	beq	s0,a2,13db8 <enormlz+0xcc>
   13d48:	0064d783          	lhu	a5,6(s1)
   13d4c:	fc078ee3          	beqz	a5,13d28 <enormlz+0x3c>
   13d50:	0ff00713          	li	a4,255
   13d54:	04f76063          	bltu	a4,a5,13d94 <enormlz+0xa8>
   13d58:	01848813          	add	a6,s1,24
   13d5c:	00248593          	add	a1,s1,2
   13d60:	0ff00513          	li	a0,255
   13d64:	00000793          	li	a5,0
   13d68:	00080713          	mv	a4,a6
   13d6c:	00075683          	lhu	a3,0(a4)
   13d70:	ffe70713          	add	a4,a4,-2
   13d74:	0086961b          	sllw	a2,a3,0x8
   13d78:	00c7e7b3          	or	a5,a5,a2
   13d7c:	00f71123          	sh	a5,2(a4)
   13d80:	0086d793          	srl	a5,a3,0x8
   13d84:	feb714e3          	bne	a4,a1,13d6c <enormlz+0x80>
   13d88:	0064d783          	lhu	a5,6(s1)
   13d8c:	0084041b          	addw	s0,s0,8
   13d90:	fcf57ae3          	bgeu	a0,a5,13d64 <enormlz+0x78>
   13d94:	0a000913          	li	s2,160
   13d98:	0140006f          	j	13dac <enormlz+0xc0>
   13d9c:	0014041b          	addw	s0,s0,1
   13da0:	d71ff0ef          	jal	13b10 <eshup1>
   13da4:	00894a63          	blt	s2,s0,13db8 <enormlz+0xcc>
   13da8:	0064d783          	lhu	a5,6(s1)
   13dac:	00f7d793          	srl	a5,a5,0xf
   13db0:	00048513          	mv	a0,s1
   13db4:	fe0784e3          	beqz	a5,13d9c <enormlz+0xb0>
   13db8:	01813083          	ld	ra,24(sp)
   13dbc:	00040513          	mv	a0,s0
   13dc0:	01013403          	ld	s0,16(sp)
   13dc4:	00813483          	ld	s1,8(sp)
   13dc8:	00013903          	ld	s2,0(sp)
   13dcc:	02010113          	add	sp,sp,32
   13dd0:	00008067          	ret
   13dd4:	0ff00713          	li	a4,255
   13dd8:	00000413          	li	s0,0
   13ddc:	04f76063          	bltu	a4,a5,13e1c <enormlz+0x130>
   13de0:	f6f00913          	li	s2,-145
   13de4:	0140006f          	j	13df8 <enormlz+0x10c>
   13de8:	fff4041b          	addw	s0,s0,-1
   13dec:	cd1ff0ef          	jal	13abc <eshdn1>
   13df0:	fd2404e3          	beq	s0,s2,13db8 <enormlz+0xcc>
   13df4:	0044d783          	lhu	a5,4(s1)
   13df8:	00048513          	mv	a0,s1
   13dfc:	fe0796e3          	bnez	a5,13de8 <enormlz+0xfc>
   13e00:	01813083          	ld	ra,24(sp)
   13e04:	00040513          	mv	a0,s0
   13e08:	01013403          	ld	s0,16(sp)
   13e0c:	00813483          	ld	s1,8(sp)
   13e10:	00013903          	ld	s2,0(sp)
   13e14:	02010113          	add	sp,sp,32
   13e18:	00008067          	ret
   13e1c:	00450713          	add	a4,a0,4
   13e20:	01a50593          	add	a1,a0,26
   13e24:	00000793          	li	a5,0
   13e28:	00075683          	lhu	a3,0(a4)
   13e2c:	00270713          	add	a4,a4,2
   13e30:	0086d61b          	srlw	a2,a3,0x8
   13e34:	00c7e7b3          	or	a5,a5,a2
   13e38:	0086969b          	sllw	a3,a3,0x8
   13e3c:	fef71f23          	sh	a5,-2(a4)
   13e40:	03069793          	sll	a5,a3,0x30
   13e44:	0307d793          	srl	a5,a5,0x30
   13e48:	feb710e3          	bne	a4,a1,13e28 <enormlz+0x13c>
   13e4c:	0044d783          	lhu	a5,4(s1)
   13e50:	ff800413          	li	s0,-8
   13e54:	f8dff06f          	j	13de0 <enormlz+0xf4>

0000000000013e58 <eshift.part.0>:
   13e58:	fd010113          	add	sp,sp,-48
   13e5c:	02813023          	sd	s0,32(sp)
   13e60:	00913c23          	sd	s1,24(sp)
   13e64:	02113423          	sd	ra,40(sp)
   13e68:	01213823          	sd	s2,16(sp)
   13e6c:	01313423          	sd	s3,8(sp)
   13e70:	00058493          	mv	s1,a1
   13e74:	00050413          	mv	s0,a0
   13e78:	0a05c463          	bltz	a1,13f20 <eshift.part.0+0xc8>
   13e7c:	00f00793          	li	a5,15
   13e80:	00058613          	mv	a2,a1
   13e84:	00450513          	add	a0,a0,4
   13e88:	01840693          	add	a3,s0,24
   13e8c:	00f00593          	li	a1,15
   13e90:	0297d463          	bge	a5,s1,13eb8 <eshift.part.0+0x60>
   13e94:	00050793          	mv	a5,a0
   13e98:	0027d703          	lhu	a4,2(a5)
   13e9c:	00278793          	add	a5,a5,2
   13ea0:	fee79f23          	sh	a4,-2(a5)
   13ea4:	fed79ae3          	bne	a5,a3,13e98 <eshift.part.0+0x40>
   13ea8:	00041c23          	sh	zero,24(s0)
   13eac:	ff06061b          	addw	a2,a2,-16
   13eb0:	fec5c2e3          	blt	a1,a2,13e94 <eshift.part.0+0x3c>
   13eb4:	00f4f493          	and	s1,s1,15
   13eb8:	00700793          	li	a5,7
   13ebc:	0297d863          	bge	a5,s1,13eec <eshift.part.0+0x94>
   13ec0:	01840713          	add	a4,s0,24
   13ec4:	00240593          	add	a1,s0,2
   13ec8:	00000793          	li	a5,0
   13ecc:	00075683          	lhu	a3,0(a4)
   13ed0:	ffe70713          	add	a4,a4,-2
   13ed4:	0086961b          	sllw	a2,a3,0x8
   13ed8:	00c7e7b3          	or	a5,a5,a2
   13edc:	00f71123          	sh	a5,2(a4)
   13ee0:	0086d793          	srl	a5,a3,0x8
   13ee4:	feb714e3          	bne	a4,a1,13ecc <eshift.part.0+0x74>
   13ee8:	ff84849b          	addw	s1,s1,-8
   13eec:	00048a63          	beqz	s1,13f00 <eshift.part.0+0xa8>
   13ef0:	fff4849b          	addw	s1,s1,-1
   13ef4:	00040513          	mv	a0,s0
   13ef8:	c19ff0ef          	jal	13b10 <eshup1>
   13efc:	fe049ae3          	bnez	s1,13ef0 <eshift.part.0+0x98>
   13f00:	00000513          	li	a0,0
   13f04:	02813083          	ld	ra,40(sp)
   13f08:	02013403          	ld	s0,32(sp)
   13f0c:	01813483          	ld	s1,24(sp)
   13f10:	01013903          	ld	s2,16(sp)
   13f14:	00813983          	ld	s3,8(sp)
   13f18:	03010113          	add	sp,sp,48
   13f1c:	00008067          	ret
   13f20:	ff100793          	li	a5,-15
   13f24:	40b0093b          	negw	s2,a1
   13f28:	00000993          	li	s3,0
   13f2c:	01850593          	add	a1,a0,24
   13f30:	00450693          	add	a3,a0,4
   13f34:	00f00613          	li	a2,15
   13f38:	0cf4dc63          	bge	s1,a5,14010 <eshift.part.0+0x1b8>
   13f3c:	01845703          	lhu	a4,24(s0)
   13f40:	00058793          	mv	a5,a1
   13f44:	00e9e9b3          	or	s3,s3,a4
   13f48:	ffe7d703          	lhu	a4,-2(a5)
   13f4c:	ffe78793          	add	a5,a5,-2
   13f50:	00e79123          	sh	a4,2(a5)
   13f54:	fed79ae3          	bne	a5,a3,13f48 <eshift.part.0+0xf0>
   13f58:	00041223          	sh	zero,4(s0)
   13f5c:	ff09091b          	addw	s2,s2,-16
   13f60:	fd264ee3          	blt	a2,s2,13f3c <eshift.part.0+0xe4>
   13f64:	ff000913          	li	s2,-16
   13f68:	ff100713          	li	a4,-15
   13f6c:	4099093b          	subw	s2,s2,s1
   13f70:	00000793          	li	a5,0
   13f74:	08e4c863          	blt	s1,a4,14004 <eshift.part.0+0x1ac>
   13f78:	00f9093b          	addw	s2,s2,a5
   13f7c:	00700793          	li	a5,7
   13f80:	0327de63          	bge	a5,s2,13fbc <eshift.part.0+0x164>
   13f84:	01844783          	lbu	a5,24(s0)
   13f88:	01a40593          	add	a1,s0,26
   13f8c:	00f9e9b3          	or	s3,s3,a5
   13f90:	00000793          	li	a5,0
   13f94:	0006d703          	lhu	a4,0(a3)
   13f98:	00268693          	add	a3,a3,2
   13f9c:	0087561b          	srlw	a2,a4,0x8
   13fa0:	00c7e7b3          	or	a5,a5,a2
   13fa4:	0087171b          	sllw	a4,a4,0x8
   13fa8:	fef69f23          	sh	a5,-2(a3)
   13fac:	03071793          	sll	a5,a4,0x30
   13fb0:	0307d793          	srl	a5,a5,0x30
   13fb4:	feb690e3          	bne	a3,a1,13f94 <eshift.part.0+0x13c>
   13fb8:	ff89091b          	addw	s2,s2,-8
   13fbc:	01303533          	snez	a0,s3
   13fc0:	f40902e3          	beqz	s2,13f04 <eshift.part.0+0xac>
   13fc4:	01845783          	lhu	a5,24(s0)
   13fc8:	fff9091b          	addw	s2,s2,-1
   13fcc:	00040513          	mv	a0,s0
   13fd0:	0017f793          	and	a5,a5,1
   13fd4:	00f9e9b3          	or	s3,s3,a5
   13fd8:	ae5ff0ef          	jal	13abc <eshdn1>
   13fdc:	fe0914e3          	bnez	s2,13fc4 <eshift.part.0+0x16c>
   13fe0:	02813083          	ld	ra,40(sp)
   13fe4:	02013403          	ld	s0,32(sp)
   13fe8:	0009899b          	sext.w	s3,s3
   13fec:	01813483          	ld	s1,24(sp)
   13ff0:	01013903          	ld	s2,16(sp)
   13ff4:	01303533          	snez	a0,s3
   13ff8:	00813983          	ld	s3,8(sp)
   13ffc:	03010113          	add	sp,sp,48
   14000:	00008067          	ret
   14004:	ff097793          	and	a5,s2,-16
   14008:	40f007bb          	negw	a5,a5
   1400c:	f6dff06f          	j	13f78 <eshift.part.0+0x120>
   14010:	ff900793          	li	a5,-7
   14014:	f6f4c8e3          	blt	s1,a5,13f84 <eshift.part.0+0x12c>
   14018:	fadff06f          	j	13fc4 <eshift.part.0+0x16c>

000000000001401c <emovi>:
   1401c:	01255783          	lhu	a5,18(a0)
   14020:	000086b7          	lui	a3,0x8
   14024:	fff68693          	add	a3,a3,-1 # 7fff <exit-0x80e9>
   14028:	00f7d79b          	srlw	a5,a5,0xf
   1402c:	40f007bb          	negw	a5,a5
   14030:	00f59023          	sh	a5,0(a1)
   14034:	01255703          	lhu	a4,18(a0)
   14038:	01050793          	add	a5,a0,16
   1403c:	00d77733          	and	a4,a4,a3
   14040:	00e59123          	sh	a4,2(a1)
   14044:	0007061b          	sext.w	a2,a4
   14048:	02d70663          	beq	a4,a3,14074 <emovi+0x58>
   1404c:	00658713          	add	a4,a1,6
   14050:	00059223          	sh	zero,4(a1)
   14054:	ffe50513          	add	a0,a0,-2
   14058:	0007d683          	lhu	a3,0(a5)
   1405c:	ffe78793          	add	a5,a5,-2
   14060:	00270713          	add	a4,a4,2
   14064:	fed71f23          	sh	a3,-2(a4)
   14068:	fea798e3          	bne	a5,a0,14058 <emovi+0x3c>
   1406c:	00059c23          	sh	zero,24(a1)
   14070:	00008067          	ret
   14074:	01255703          	lhu	a4,18(a0)
   14078:	00c77733          	and	a4,a4,a2
   1407c:	00c71e63          	bne	a4,a2,14098 <emovi+0x7c>
   14080:	01250613          	add	a2,a0,18
   14084:	00050713          	mv	a4,a0
   14088:	00075683          	lhu	a3,0(a4)
   1408c:	00270713          	add	a4,a4,2
   14090:	02069063          	bnez	a3,140b0 <emovi+0x94>
   14094:	fec71ae3          	bne	a4,a2,14088 <emovi+0x6c>
   14098:	00458793          	add	a5,a1,4
   1409c:	01a58593          	add	a1,a1,26
   140a0:	00278793          	add	a5,a5,2
   140a4:	fe079f23          	sh	zero,-2(a5)
   140a8:	feb79ce3          	bne	a5,a1,140a0 <emovi+0x84>
   140ac:	00008067          	ret
   140b0:	00658713          	add	a4,a1,6
   140b4:	00059223          	sh	zero,4(a1)
   140b8:	ffc50513          	add	a0,a0,-4
   140bc:	0007d683          	lhu	a3,0(a5)
   140c0:	ffe78793          	add	a5,a5,-2
   140c4:	00270713          	add	a4,a4,2
   140c8:	fed71f23          	sh	a3,-2(a4)
   140cc:	fef518e3          	bne	a0,a5,140bc <emovi+0xa0>
   140d0:	00008067          	ret

00000000000140d4 <ecmp>:
   140d4:	01255783          	lhu	a5,18(a0)
   140d8:	fb010113          	add	sp,sp,-80
   140dc:	04813023          	sd	s0,64(sp)
   140e0:	fff7c793          	not	a5,a5
   140e4:	04113423          	sd	ra,72(sp)
   140e8:	03179713          	sll	a4,a5,0x31
   140ec:	00058413          	mv	s0,a1
   140f0:	00071e63          	bnez	a4,1410c <ecmp+0x38>
   140f4:	01250693          	add	a3,a0,18
   140f8:	00050793          	mv	a5,a0
   140fc:	0007d703          	lhu	a4,0(a5)
   14100:	00278793          	add	a5,a5,2
   14104:	08071c63          	bnez	a4,1419c <ecmp+0xc8>
   14108:	fed79ae3          	bne	a5,a3,140fc <ecmp+0x28>
   1410c:	01245783          	lhu	a5,18(s0)
   14110:	fff7c793          	not	a5,a5
   14114:	03179713          	sll	a4,a5,0x31
   14118:	06070063          	beqz	a4,14178 <ecmp+0xa4>
   1411c:	00010593          	mv	a1,sp
   14120:	efdff0ef          	jal	1401c <emovi>
   14124:	02010593          	add	a1,sp,32
   14128:	00040513          	mv	a0,s0
   1412c:	ef1ff0ef          	jal	1401c <emovi>
   14130:	00015583          	lhu	a1,0(sp)
   14134:	02015783          	lhu	a5,32(sp)
   14138:	06b78c63          	beq	a5,a1,141b0 <ecmp+0xdc>
   1413c:	00210793          	add	a5,sp,2
   14140:	02210713          	add	a4,sp,34
   14144:	01810613          	add	a2,sp,24
   14148:	0007d683          	lhu	a3,0(a5)
   1414c:	00278793          	add	a5,a5,2
   14150:	0a069663          	bnez	a3,141fc <ecmp+0x128>
   14154:	00075683          	lhu	a3,0(a4)
   14158:	00270713          	add	a4,a4,2
   1415c:	0a069063          	bnez	a3,141fc <ecmp+0x128>
   14160:	fef614e3          	bne	a2,a5,14148 <ecmp+0x74>
   14164:	00000513          	li	a0,0
   14168:	04813083          	ld	ra,72(sp)
   1416c:	04013403          	ld	s0,64(sp)
   14170:	05010113          	add	sp,sp,80
   14174:	00008067          	ret
   14178:	00040793          	mv	a5,s0
   1417c:	0007d703          	lhu	a4,0(a5)
   14180:	01240693          	add	a3,s0,18
   14184:	00278793          	add	a5,a5,2
   14188:	00071a63          	bnez	a4,1419c <ecmp+0xc8>
   1418c:	f8d788e3          	beq	a5,a3,1411c <ecmp+0x48>
   14190:	0007d703          	lhu	a4,0(a5)
   14194:	00278793          	add	a5,a5,2
   14198:	fe070ae3          	beqz	a4,1418c <ecmp+0xb8>
   1419c:	04813083          	ld	ra,72(sp)
   141a0:	04013403          	ld	s0,64(sp)
   141a4:	ffe00513          	li	a0,-2
   141a8:	05010113          	add	sp,sp,80
   141ac:	00008067          	ret
   141b0:	fff00513          	li	a0,-1
   141b4:	06058063          	beqz	a1,14214 <ecmp+0x140>
   141b8:	00010793          	mv	a5,sp
   141bc:	0007d603          	lhu	a2,0(a5)
   141c0:	02015683          	lhu	a3,32(sp)
   141c4:	02010713          	add	a4,sp,32
   141c8:	01810593          	add	a1,sp,24
   141cc:	00278793          	add	a5,a5,2
   141d0:	00270713          	add	a4,a4,2
   141d4:	00d61e63          	bne	a2,a3,141f0 <ecmp+0x11c>
   141d8:	f8b786e3          	beq	a5,a1,14164 <ecmp+0x90>
   141dc:	0007d603          	lhu	a2,0(a5)
   141e0:	00075683          	lhu	a3,0(a4)
   141e4:	00278793          	add	a5,a5,2
   141e8:	00270713          	add	a4,a4,2
   141ec:	fed606e3          	beq	a2,a3,141d8 <ecmp+0x104>
   141f0:	f6c6ece3          	bltu	a3,a2,14168 <ecmp+0x94>
   141f4:	40a0053b          	negw	a0,a0
   141f8:	f71ff06f          	j	14168 <ecmp+0x94>
   141fc:	02059063          	bnez	a1,1421c <ecmp+0x148>
   14200:	04813083          	ld	ra,72(sp)
   14204:	04013403          	ld	s0,64(sp)
   14208:	00100513          	li	a0,1
   1420c:	05010113          	add	sp,sp,80
   14210:	00008067          	ret
   14214:	00100513          	li	a0,1
   14218:	fa1ff06f          	j	141b8 <ecmp+0xe4>
   1421c:	fff00513          	li	a0,-1
   14220:	f49ff06f          	j	14168 <ecmp+0x94>

0000000000014224 <emdnorm>:
   14224:	fc010113          	add	sp,sp,-64
   14228:	02813823          	sd	s0,48(sp)
   1422c:	02913423          	sd	s1,40(sp)
   14230:	03213023          	sd	s2,32(sp)
   14234:	01313c23          	sd	s3,24(sp)
   14238:	01413823          	sd	s4,16(sp)
   1423c:	01513423          	sd	s5,8(sp)
   14240:	00068913          	mv	s2,a3
   14244:	00078413          	mv	s0,a5
   14248:	02113c23          	sd	ra,56(sp)
   1424c:	00050493          	mv	s1,a0
   14250:	00058993          	mv	s3,a1
   14254:	00060a13          	mv	s4,a2
   14258:	00070a93          	mv	s5,a4
   1425c:	a91ff0ef          	jal	13cec <enormlz>
   14260:	09000793          	li	a5,144
   14264:	40a90933          	sub	s2,s2,a0
   14268:	18a7d863          	bge	a5,a0,143f8 <emdnorm+0x1d4>
   1426c:	000087b7          	lui	a5,0x8
   14270:	ffe78793          	add	a5,a5,-2 # 7ffe <exit-0x80ea>
   14274:	2d27da63          	bge	a5,s2,14548 <emdnorm+0x324>
   14278:	220a8a63          	beqz	s5,144ac <emdnorm+0x288>
   1427c:	00442a83          	lw	s5,4(s0)
   14280:	00042783          	lw	a5,0(s0)
   14284:	28fa8a63          	beq	s5,a5,14518 <emdnorm+0x2f4>
   14288:	01a40713          	add	a4,s0,26
   1428c:	03440793          	add	a5,s0,52
   14290:	00270713          	add	a4,a4,2
   14294:	fe071f23          	sh	zero,-2(a4)
   14298:	fee79ce3          	bne	a5,a4,14290 <emdnorm+0x6c>
   1429c:	03800793          	li	a5,56
   142a0:	38fa8863          	beq	s5,a5,14630 <emdnorm+0x40c>
   142a4:	1b57da63          	bge	a5,s5,14458 <emdnorm+0x234>
   142a8:	04000793          	li	a5,64
   142ac:	2afa8a63          	beq	s5,a5,14560 <emdnorm+0x33c>
   142b0:	07100793          	li	a5,113
   142b4:	3afa9c63          	bne	s5,a5,1466c <emdnorm+0x448>
   142b8:	400087b7          	lui	a5,0x40008
   142bc:	00a00693          	li	a3,10
   142c0:	ffff8737          	lui	a4,0xffff8
   142c4:	fff78793          	add	a5,a5,-1 # 40007fff <__BSS_END__+0x3ffe31e7>
   142c8:	00d42423          	sw	a3,8(s0)
   142cc:	00f42a23          	sw	a5,20(s0)
   142d0:	00e41c23          	sh	a4,24(s0)
   142d4:	00d42623          	sw	a3,12(s0)
   142d8:	02e41723          	sh	a4,46(s0)
   142dc:	01542023          	sw	s5,0(s0)
   142e0:	23205063          	blez	s2,14500 <emdnorm+0x2dc>
   142e4:	0144d603          	lhu	a2,20(s1)
   142e8:	01448593          	add	a1,s1,20
   142ec:	00b00793          	li	a5,11
   142f0:	03161613          	sll	a2,a2,0x31
   142f4:	03165613          	srl	a2,a2,0x31
   142f8:	00c00713          	li	a4,12
   142fc:	40f7073b          	subw	a4,a4,a5
   14300:	02071713          	sll	a4,a4,0x20
   14304:	02075713          	srl	a4,a4,0x20
   14308:	00f70733          	add	a4,a4,a5
   1430c:	00171713          	sll	a4,a4,0x1
   14310:	00179793          	sll	a5,a5,0x1
   14314:	00248693          	add	a3,s1,2
   14318:	00f487b3          	add	a5,s1,a5
   1431c:	00d70733          	add	a4,a4,a3
   14320:	0007d683          	lhu	a3,0(a5)
   14324:	00068463          	beqz	a3,1432c <emdnorm+0x108>
   14328:	00166613          	or	a2,a2,1
   1432c:	00079023          	sh	zero,0(a5)
   14330:	00278793          	add	a5,a5,2
   14334:	fef716e3          	bne	a4,a5,14320 <emdnorm+0xfc>
   14338:	0005d703          	lhu	a4,0(a1)
   1433c:	01445683          	lhu	a3,20(s0)
   14340:	fff6c693          	not	a3,a3
   14344:	00d77733          	and	a4,a4,a3
   14348:	00e59023          	sh	a4,0(a1)
   1434c:	01645783          	lhu	a5,22(s0)
   14350:	00c7f733          	and	a4,a5,a2
   14354:	06070063          	beqz	a4,143b4 <emdnorm+0x190>
   14358:	02c79263          	bne	a5,a2,1437c <emdnorm+0x158>
   1435c:	2c099663          	bnez	s3,14628 <emdnorm+0x404>
   14360:	00c42783          	lw	a5,12(s0)
   14364:	01845703          	lhu	a4,24(s0)
   14368:	00179793          	sll	a5,a5,0x1
   1436c:	00f487b3          	add	a5,s1,a5
   14370:	0007d783          	lhu	a5,0(a5)
   14374:	00e7f7b3          	and	a5,a5,a4
   14378:	02078e63          	beqz	a5,143b4 <emdnorm+0x190>
   1437c:	03240793          	add	a5,s0,50
   14380:	01848613          	add	a2,s1,24
   14384:	00248513          	add	a0,s1,2
   14388:	00000593          	li	a1,0
   1438c:	0007d703          	lhu	a4,0(a5)
   14390:	00065683          	lhu	a3,0(a2)
   14394:	ffe60613          	add	a2,a2,-2
   14398:	ffe78793          	add	a5,a5,-2
   1439c:	00d70733          	add	a4,a4,a3
   143a0:	00b70733          	add	a4,a4,a1
   143a4:	01075593          	srl	a1,a4,0x10
   143a8:	00e61123          	sh	a4,2(a2)
   143ac:	0015f593          	and	a1,a1,1
   143b0:	fca61ee3          	bne	a2,a0,1438c <emdnorm+0x168>
   143b4:	23205a63          	blez	s2,145e8 <emdnorm+0x3c4>
   143b8:	0044d783          	lhu	a5,4(s1)
   143bc:	20079663          	bnez	a5,145c8 <emdnorm+0x3a4>
   143c0:	000087b7          	lui	a5,0x8
   143c4:	00049c23          	sh	zero,24(s1)
   143c8:	ffe78793          	add	a5,a5,-2 # 7ffe <exit-0x80ea>
   143cc:	0f27c263          	blt	a5,s2,144b0 <emdnorm+0x28c>
   143d0:	01249123          	sh	s2,2(s1)
   143d4:	03813083          	ld	ra,56(sp)
   143d8:	03013403          	ld	s0,48(sp)
   143dc:	02813483          	ld	s1,40(sp)
   143e0:	02013903          	ld	s2,32(sp)
   143e4:	01813983          	ld	s3,24(sp)
   143e8:	01013a03          	ld	s4,16(sp)
   143ec:	00813a83          	ld	s5,8(sp)
   143f0:	04010113          	add	sp,sp,64
   143f4:	00008067          	ret
   143f8:	04094063          	bltz	s2,14438 <emdnorm+0x214>
   143fc:	fc0a82e3          	beqz	s5,143c0 <emdnorm+0x19c>
   14400:	00442a83          	lw	s5,4(s0)
   14404:	00042783          	lw	a5,0(s0)
   14408:	e8fa90e3          	bne	s5,a5,14288 <emdnorm+0x64>
   1440c:	2d204263          	bgtz	s2,146d0 <emdnorm+0x4ac>
   14410:	09000713          	li	a4,144
   14414:	2ce79263          	bne	a5,a4,146d8 <emdnorm+0x4b4>
   14418:	00842583          	lw	a1,8(s0)
   1441c:	01445683          	lhu	a3,20(s0)
   14420:	09000a93          	li	s5,144
   14424:	00159593          	sll	a1,a1,0x1
   14428:	00b485b3          	add	a1,s1,a1
   1442c:	0005d703          	lhu	a4,0(a1)
   14430:	00d77633          	and	a2,a4,a3
   14434:	f0dff06f          	j	14340 <emdnorm+0x11c>
   14438:	f7000793          	li	a5,-144
   1443c:	16f95263          	bge	s2,a5,145a0 <emdnorm+0x37c>
   14440:	00248793          	add	a5,s1,2
   14444:	01a48493          	add	s1,s1,26
   14448:	00278793          	add	a5,a5,2
   1444c:	fe079f23          	sh	zero,-2(a5)
   14450:	fef49ce3          	bne	s1,a5,14448 <emdnorm+0x224>
   14454:	f81ff06f          	j	143d4 <emdnorm+0x1b0>
   14458:	01800793          	li	a5,24
   1445c:	06fa8c63          	beq	s5,a5,144d4 <emdnorm+0x2b0>
   14460:	03500793          	li	a5,53
   14464:	20fa9463          	bne	s5,a5,1466c <emdnorm+0x448>
   14468:	000017b7          	lui	a5,0x1
   1446c:	04000737          	lui	a4,0x4000
   14470:	00600693          	li	a3,6
   14474:	80078793          	add	a5,a5,-2048 # 800 <exit-0xf8e8>
   14478:	7ff70713          	add	a4,a4,2047 # 40007ff <__BSS_END__+0x3fdb9e7>
   1447c:	00d42423          	sw	a3,8(s0)
   14480:	00e42a23          	sw	a4,20(s0)
   14484:	00f41c23          	sh	a5,24(s0)
   14488:	00d42623          	sw	a3,12(s0)
   1448c:	02f41323          	sh	a5,38(s0)
   14490:	01542023          	sw	s5,0(s0)
   14494:	07205663          	blez	s2,14500 <emdnorm+0x2dc>
   14498:	00c4d603          	lhu	a2,12(s1)
   1449c:	00c48593          	add	a1,s1,12
   144a0:	00700793          	li	a5,7
   144a4:	7ff67613          	and	a2,a2,2047
   144a8:	e51ff06f          	j	142f8 <emdnorm+0xd4>
   144ac:	00049c23          	sh	zero,24(s1)
   144b0:	ffff87b7          	lui	a5,0xffff8
   144b4:	fff7c793          	not	a5,a5
   144b8:	00f49123          	sh	a5,2(s1)
   144bc:	00448793          	add	a5,s1,4
   144c0:	01848493          	add	s1,s1,24
   144c4:	00079023          	sh	zero,0(a5) # ffffffffffff8000 <__BSS_END__+0xfffffffffffd31e8>
   144c8:	00278793          	add	a5,a5,2
   144cc:	fe979ce3          	bne	a5,s1,144c4 <emdnorm+0x2a0>
   144d0:	f05ff06f          	j	143d4 <emdnorm+0x1b0>
   144d4:	008007b7          	lui	a5,0x800
   144d8:	00400693          	li	a3,4
   144dc:	10000713          	li	a4,256
   144e0:	0ff78793          	add	a5,a5,255 # 8000ff <__BSS_END__+0x7db2e7>
   144e4:	00d42423          	sw	a3,8(s0)
   144e8:	00f42a23          	sw	a5,20(s0)
   144ec:	00e41c23          	sh	a4,24(s0)
   144f0:	00d42623          	sw	a3,12(s0)
   144f4:	02e41123          	sh	a4,34(s0)
   144f8:	01542023          	sw	s5,0(s0)
   144fc:	1b204c63          	bgtz	s2,146b4 <emdnorm+0x490>
   14500:	0184d783          	lhu	a5,24(s1)
   14504:	00048513          	mv	a0,s1
   14508:	0017f793          	and	a5,a5,1
   1450c:	00f9e7b3          	or	a5,s3,a5
   14510:	0007899b          	sext.w	s3,a5
   14514:	da8ff0ef          	jal	13abc <eshdn1>
   14518:	00842783          	lw	a5,8(s0)
   1451c:	01445683          	lhu	a3,20(s0)
   14520:	08f00513          	li	a0,143
   14524:	00179593          	sll	a1,a5,0x1
   14528:	00b485b3          	add	a1,s1,a1
   1452c:	0005d703          	lhu	a4,0(a1)
   14530:	00d77633          	and	a2,a4,a3
   14534:	e15546e3          	blt	a0,s5,14340 <emdnorm+0x11c>
   14538:	0017879b          	addw	a5,a5,1
   1453c:	00c00513          	li	a0,12
   14540:	daf55ce3          	bge	a0,a5,142f8 <emdnorm+0xd4>
   14544:	dfdff06f          	j	14340 <emdnorm+0x11c>
   14548:	00248793          	add	a5,s1,2
   1454c:	01a48493          	add	s1,s1,26
   14550:	00278793          	add	a5,a5,2
   14554:	fe079f23          	sh	zero,-2(a5)
   14558:	fef49ce3          	bne	s1,a5,14550 <emdnorm+0x32c>
   1455c:	e79ff06f          	j	143d4 <emdnorm+0x1b0>
   14560:	00700793          	li	a5,7
   14564:	00f42423          	sw	a5,8(s0)
   14568:	800107b7          	lui	a5,0x80010
   1456c:	fff78793          	add	a5,a5,-1 # ffffffff8000ffff <__BSS_END__+0xffffffff7ffeb1e7>
   14570:	00100713          	li	a4,1
   14574:	00f42a23          	sw	a5,20(s0)
   14578:	00600793          	li	a5,6
   1457c:	00e41c23          	sh	a4,24(s0)
   14580:	00f42623          	sw	a5,12(s0)
   14584:	02e41323          	sh	a4,38(s0)
   14588:	01542023          	sw	s5,0(s0)
   1458c:	f7205ae3          	blez	s2,14500 <emdnorm+0x2dc>
   14590:	00e4d603          	lhu	a2,14(s1)
   14594:	00e48593          	add	a1,s1,14
   14598:	00800793          	li	a5,8
   1459c:	d5dff06f          	j	142f8 <emdnorm+0xd4>
   145a0:	0009059b          	sext.w	a1,s2
   145a4:	00048513          	mv	a0,s1
   145a8:	8b1ff0ef          	jal	13e58 <eshift.part.0>
   145ac:	0e050a63          	beqz	a0,146a0 <emdnorm+0x47c>
   145b0:	100a8a63          	beqz	s5,146c4 <emdnorm+0x4a0>
   145b4:	00442a83          	lw	s5,4(s0)
   145b8:	00042783          	lw	a5,0(s0)
   145bc:	00100993          	li	s3,1
   145c0:	ccfa94e3          	bne	s5,a5,14288 <emdnorm+0x64>
   145c4:	e4dff06f          	j	14410 <emdnorm+0x1ec>
   145c8:	00048513          	mv	a0,s1
   145cc:	cf0ff0ef          	jal	13abc <eshdn1>
   145d0:	000087b7          	lui	a5,0x8
   145d4:	00190913          	add	s2,s2,1
   145d8:	00049c23          	sh	zero,24(s1)
   145dc:	ffe78793          	add	a5,a5,-2 # 7ffe <exit-0x80ea>
   145e0:	ed27c8e3          	blt	a5,s2,144b0 <emdnorm+0x28c>
   145e4:	dedff06f          	j	143d0 <emdnorm+0x1ac>
   145e8:	09000793          	li	a5,144
   145ec:	02fa8263          	beq	s5,a5,14610 <emdnorm+0x3ec>
   145f0:	00048513          	mv	a0,s1
   145f4:	d1cff0ef          	jal	13b10 <eshup1>
   145f8:	0044d783          	lhu	a5,4(s1)
   145fc:	00079e63          	bnez	a5,14618 <emdnorm+0x3f4>
   14600:	00049c23          	sh	zero,24(s1)
   14604:	dc0956e3          	bgez	s2,143d0 <emdnorm+0x1ac>
   14608:	00049123          	sh	zero,2(s1)
   1460c:	dc9ff06f          	j	143d4 <emdnorm+0x1b0>
   14610:	0044d783          	lhu	a5,4(s1)
   14614:	fe0786e3          	beqz	a5,14600 <emdnorm+0x3dc>
   14618:	00048513          	mv	a0,s1
   1461c:	ca0ff0ef          	jal	13abc <eshdn1>
   14620:	00190913          	add	s2,s2,1
   14624:	fddff06f          	j	14600 <emdnorm+0x3dc>
   14628:	d40a0ae3          	beqz	s4,1437c <emdnorm+0x158>
   1462c:	d89ff06f          	j	143b4 <emdnorm+0x190>
   14630:	008007b7          	lui	a5,0x800
   14634:	00600693          	li	a3,6
   14638:	10000713          	li	a4,256
   1463c:	0ff78793          	add	a5,a5,255 # 8000ff <__BSS_END__+0x7db2e7>
   14640:	00d42423          	sw	a3,8(s0)
   14644:	00f42a23          	sw	a5,20(s0)
   14648:	00e41c23          	sh	a4,24(s0)
   1464c:	00d42623          	sw	a3,12(s0)
   14650:	02e41323          	sh	a4,38(s0)
   14654:	01542023          	sw	s5,0(s0)
   14658:	eb2054e3          	blez	s2,14500 <emdnorm+0x2dc>
   1465c:	00c4c603          	lbu	a2,12(s1)
   14660:	00c48593          	add	a1,s1,12
   14664:	00700793          	li	a5,7
   14668:	c91ff06f          	j	142f8 <emdnorm+0xd4>
   1466c:	00c00793          	li	a5,12
   14670:	00f42423          	sw	a5,8(s0)
   14674:	800107b7          	lui	a5,0x80010
   14678:	fff78793          	add	a5,a5,-1 # ffffffff8000ffff <__BSS_END__+0xffffffff7ffeb1e7>
   1467c:	00100713          	li	a4,1
   14680:	00f42a23          	sw	a5,20(s0)
   14684:	00b00793          	li	a5,11
   14688:	00f42623          	sw	a5,12(s0)
   1468c:	00e41c23          	sh	a4,24(s0)
   14690:	02e41823          	sh	a4,48(s0)
   14694:	01542023          	sw	s5,0(s0)
   14698:	000a8793          	mv	a5,s5
   1469c:	d71ff06f          	j	1440c <emdnorm+0x1e8>
   146a0:	020a8263          	beqz	s5,146c4 <emdnorm+0x4a0>
   146a4:	00442a83          	lw	s5,4(s0)
   146a8:	00042783          	lw	a5,0(s0)
   146ac:	bcfa9ee3          	bne	s5,a5,14288 <emdnorm+0x64>
   146b0:	d61ff06f          	j	14410 <emdnorm+0x1ec>
   146b4:	0084c603          	lbu	a2,8(s1)
   146b8:	00848593          	add	a1,s1,8
   146bc:	00500793          	li	a5,5
   146c0:	c39ff06f          	j	142f8 <emdnorm+0xd4>
   146c4:	00049c23          	sh	zero,24(s1)
   146c8:	00049123          	sh	zero,2(s1)
   146cc:	d09ff06f          	j	143d4 <emdnorm+0x1b0>
   146d0:	00078a93          	mv	s5,a5
   146d4:	e45ff06f          	j	14518 <emdnorm+0x2f4>
   146d8:	00078a93          	mv	s5,a5
   146dc:	e25ff06f          	j	14500 <emdnorm+0x2dc>

00000000000146e0 <eiremain>:
   146e0:	fa010113          	add	sp,sp,-96
   146e4:	05213023          	sd	s2,64(sp)
   146e8:	03313c23          	sd	s3,56(sp)
   146ec:	00058913          	mv	s2,a1
   146f0:	00255983          	lhu	s3,2(a0)
   146f4:	04113c23          	sd	ra,88(sp)
   146f8:	04813823          	sd	s0,80(sp)
   146fc:	04913423          	sd	s1,72(sp)
   14700:	03413823          	sd	s4,48(sp)
   14704:	00060493          	mv	s1,a2
   14708:	01713c23          	sd	s7,24(sp)
   1470c:	03513423          	sd	s5,40(sp)
   14710:	03613023          	sd	s6,32(sp)
   14714:	01813823          	sd	s8,16(sp)
   14718:	01913423          	sd	s9,8(sp)
   1471c:	01a13023          	sd	s10,0(sp)
   14720:	00050b93          	mv	s7,a0
   14724:	dc8ff0ef          	jal	13cec <enormlz>
   14728:	00295403          	lhu	s0,2(s2)
   1472c:	00050793          	mv	a5,a0
   14730:	00090513          	mv	a0,s2
   14734:	40f989b3          	sub	s3,s3,a5
   14738:	03448a13          	add	s4,s1,52
   1473c:	db0ff0ef          	jal	13cec <enormlz>
   14740:	40a40433          	sub	s0,s0,a0
   14744:	04e48713          	add	a4,s1,78
   14748:	000a0793          	mv	a5,s4
   1474c:	00278793          	add	a5,a5,2
   14750:	fe079f23          	sh	zero,-2(a5)
   14754:	fee79ce3          	bne	a5,a4,1474c <eiremain+0x6c>
   14758:	09344863          	blt	s0,s3,147e8 <eiremain+0x108>
   1475c:	004b8b13          	add	s6,s7,4
   14760:	00490a93          	add	s5,s2,4
   14764:	01ab8c13          	add	s8,s7,26
   14768:	00290d13          	add	s10,s2,2
   1476c:	000a8713          	mv	a4,s5
   14770:	000b0793          	mv	a5,s6
   14774:	0007d603          	lhu	a2,0(a5)
   14778:	00075683          	lhu	a3,0(a4)
   1477c:	00278793          	add	a5,a5,2
   14780:	00270713          	add	a4,a4,2
   14784:	0ad61a63          	bne	a2,a3,14838 <eiremain+0x158>
   14788:	fefc16e3          	bne	s8,a5,14774 <eiremain+0x94>
   1478c:	018b8613          	add	a2,s7,24
   14790:	01890713          	add	a4,s2,24
   14794:	00000693          	li	a3,0
   14798:	00075783          	lhu	a5,0(a4)
   1479c:	00065583          	lhu	a1,0(a2)
   147a0:	ffe70713          	add	a4,a4,-2
   147a4:	ffe60613          	add	a2,a2,-2
   147a8:	40b787b3          	sub	a5,a5,a1
   147ac:	40d787b3          	sub	a5,a5,a3
   147b0:	0107d693          	srl	a3,a5,0x10
   147b4:	00f71123          	sh	a5,2(a4)
   147b8:	0016f693          	and	a3,a3,1
   147bc:	fda71ee3          	bne	a4,s10,14798 <eiremain+0xb8>
   147c0:	00100c93          	li	s9,1
   147c4:	000a0513          	mv	a0,s4
   147c8:	b48ff0ef          	jal	13b10 <eshup1>
   147cc:	04c4d783          	lhu	a5,76(s1)
   147d0:	fff40413          	add	s0,s0,-1
   147d4:	00090513          	mv	a0,s2
   147d8:	00fce7b3          	or	a5,s9,a5
   147dc:	04f49623          	sh	a5,76(s1)
   147e0:	b30ff0ef          	jal	13b10 <eshup1>
   147e4:	f93454e3          	bge	s0,s3,1476c <eiremain+0x8c>
   147e8:	00040693          	mv	a3,s0
   147ec:	05013403          	ld	s0,80(sp)
   147f0:	05813083          	ld	ra,88(sp)
   147f4:	03813983          	ld	s3,56(sp)
   147f8:	03013a03          	ld	s4,48(sp)
   147fc:	02813a83          	ld	s5,40(sp)
   14800:	02013b03          	ld	s6,32(sp)
   14804:	01813b83          	ld	s7,24(sp)
   14808:	01013c03          	ld	s8,16(sp)
   1480c:	00813c83          	ld	s9,8(sp)
   14810:	00013d03          	ld	s10,0(sp)
   14814:	00048793          	mv	a5,s1
   14818:	00090513          	mv	a0,s2
   1481c:	04813483          	ld	s1,72(sp)
   14820:	04013903          	ld	s2,64(sp)
   14824:	00000713          	li	a4,0
   14828:	00000613          	li	a2,0
   1482c:	00000593          	li	a1,0
   14830:	06010113          	add	sp,sp,96
   14834:	9f1ff06f          	j	14224 <emdnorm>
   14838:	00000c93          	li	s9,0
   1483c:	f8c6e4e3          	bltu	a3,a2,147c4 <eiremain+0xe4>
   14840:	f4dff06f          	j	1478c <eiremain+0xac>

0000000000014844 <e113toe.isra.0>:
   14844:	fd010113          	add	sp,sp,-48
   14848:	02813023          	sd	s0,32(sp)
   1484c:	02113423          	sd	ra,40(sp)
   14850:	00058413          	mv	s0,a1
   14854:	00010793          	mv	a5,sp
   14858:	01a10713          	add	a4,sp,26
   1485c:	00278793          	add	a5,a5,2
   14860:	fe079f23          	sh	zero,-2(a5)
   14864:	fee79ce3          	bne	a5,a4,1485c <e113toe.isra.0+0x18>
   14868:	00e55783          	lhu	a5,14(a0)
   1486c:	00008737          	lui	a4,0x8
   14870:	fff70713          	add	a4,a4,-1 # 7fff <exit-0x80e9>
   14874:	03079693          	sll	a3,a5,0x30
   14878:	43f6d693          	sra	a3,a3,0x3f
   1487c:	00d11023          	sh	a3,0(sp)
   14880:	00e7f6b3          	and	a3,a5,a4
   14884:	00068613          	mv	a2,a3
   14888:	06e68063          	beq	a3,a4,148e8 <e113toe.isra.0+0xa4>
   1488c:	00e50793          	add	a5,a0,14
   14890:	00d11123          	sh	a3,2(sp)
   14894:	00610713          	add	a4,sp,6
   14898:	ffe7d683          	lhu	a3,-2(a5)
   1489c:	ffe78793          	add	a5,a5,-2
   148a0:	00270713          	add	a4,a4,2
   148a4:	fed71f23          	sh	a3,-2(a4)
   148a8:	fef518e3          	bne	a0,a5,14898 <e113toe.isra.0+0x54>
   148ac:	02061263          	bnez	a2,148d0 <e113toe.isra.0+0x8c>
   148b0:	00011223          	sh	zero,4(sp)
   148b4:	00040593          	mv	a1,s0
   148b8:	00010513          	mv	a0,sp
   148bc:	b74ff0ef          	jal	13c30 <emovo.constprop.0>
   148c0:	02813083          	ld	ra,40(sp)
   148c4:	02013403          	ld	s0,32(sp)
   148c8:	03010113          	add	sp,sp,48
   148cc:	00008067          	ret
   148d0:	00100793          	li	a5,1
   148d4:	fff00593          	li	a1,-1
   148d8:	00010513          	mv	a0,sp
   148dc:	00f11223          	sh	a5,4(sp)
   148e0:	d78ff0ef          	jal	13e58 <eshift.part.0>
   148e4:	fd1ff06f          	j	148b4 <e113toe.isra.0+0x70>
   148e8:	00050793          	mv	a5,a0
   148ec:	00e50693          	add	a3,a0,14
   148f0:	0007d703          	lhu	a4,0(a5)
   148f4:	00278793          	add	a5,a5,2
   148f8:	06071c63          	bnez	a4,14970 <e113toe.isra.0+0x12c>
   148fc:	fed79ae3          	bne	a5,a3,148f0 <e113toe.isra.0+0xac>
   14900:	01440713          	add	a4,s0,20
   14904:	00040793          	mv	a5,s0
   14908:	00278793          	add	a5,a5,2
   1490c:	fe079f23          	sh	zero,-2(a5)
   14910:	fee79ce3          	bne	a5,a4,14908 <e113toe.isra.0+0xc4>
   14914:	01240713          	add	a4,s0,18
   14918:	00040793          	mv	a5,s0
   1491c:	00278793          	add	a5,a5,2
   14920:	fe079f23          	sh	zero,-2(a5)
   14924:	fee79ce3          	bne	a5,a4,1491c <e113toe.isra.0+0xd8>
   14928:	01245783          	lhu	a5,18(s0)
   1492c:	000086b7          	lui	a3,0x8
   14930:	fff68693          	add	a3,a3,-1 # 7fff <exit-0x80e9>
   14934:	00d7e7b3          	or	a5,a5,a3
   14938:	03079793          	sll	a5,a5,0x30
   1493c:	0307d793          	srl	a5,a5,0x30
   14940:	00f41923          	sh	a5,18(s0)
   14944:	00e51683          	lh	a3,14(a0)
   14948:	f606dce3          	bgez	a3,148c0 <e113toe.isra.0+0x7c>
   1494c:	00040693          	mv	a3,s0
   14950:	0006d603          	lhu	a2,0(a3)
   14954:	00268693          	add	a3,a3,2
   14958:	f60614e3          	bnez	a2,148c0 <e113toe.isra.0+0x7c>
   1495c:	fee69ae3          	bne	a3,a4,14950 <e113toe.isra.0+0x10c>
   14960:	ffff8737          	lui	a4,0xffff8
   14964:	00e7c7b3          	xor	a5,a5,a4
   14968:	00f41923          	sh	a5,18(s0)
   1496c:	f55ff06f          	j	148c0 <e113toe.isra.0+0x7c>
   14970:	01040713          	add	a4,s0,16
   14974:	00040793          	mv	a5,s0
   14978:	00278793          	add	a5,a5,2
   1497c:	fe079f23          	sh	zero,-2(a5)
   14980:	fee79ce3          	bne	a5,a4,14978 <e113toe.isra.0+0x134>
   14984:	ffffc7b7          	lui	a5,0xffffc
   14988:	00f41823          	sh	a5,16(s0)
   1498c:	ffff87b7          	lui	a5,0xffff8
   14990:	fff7c793          	not	a5,a5
   14994:	00f41923          	sh	a5,18(s0)
   14998:	f29ff06f          	j	148c0 <e113toe.isra.0+0x7c>

000000000001499c <ediv>:
   1499c:	01255783          	lhu	a5,18(a0)
   149a0:	f1010113          	add	sp,sp,-240
   149a4:	0e813023          	sd	s0,224(sp)
   149a8:	fff7c793          	not	a5,a5
   149ac:	0c913c23          	sd	s1,216(sp)
   149b0:	0d213823          	sd	s2,208(sp)
   149b4:	0d313423          	sd	s3,200(sp)
   149b8:	0e113423          	sd	ra,232(sp)
   149bc:	0d413023          	sd	s4,192(sp)
   149c0:	0b513c23          	sd	s5,184(sp)
   149c4:	0b613823          	sd	s6,176(sp)
   149c8:	0b713423          	sd	s7,168(sp)
   149cc:	0b813023          	sd	s8,160(sp)
   149d0:	09913c23          	sd	s9,152(sp)
   149d4:	09a13823          	sd	s10,144(sp)
   149d8:	09b13423          	sd	s11,136(sp)
   149dc:	03179713          	sll	a4,a5,0x31
   149e0:	00050493          	mv	s1,a0
   149e4:	00058993          	mv	s3,a1
   149e8:	00060413          	mv	s0,a2
   149ec:	00068913          	mv	s2,a3
   149f0:	00071e63          	bnez	a4,14a0c <ediv+0x70>
   149f4:	01250693          	add	a3,a0,18
   149f8:	00050793          	mv	a5,a0
   149fc:	0007d703          	lhu	a4,0(a5) # ffffffffffff8000 <__BSS_END__+0xfffffffffffd31e8>
   14a00:	00278793          	add	a5,a5,2
   14a04:	0e071e63          	bnez	a4,14b00 <ediv+0x164>
   14a08:	fed79ae3          	bne	a5,a3,149fc <ediv+0x60>
   14a0c:	0129d783          	lhu	a5,18(s3)
   14a10:	fff7c793          	not	a5,a5
   14a14:	03179713          	sll	a4,a5,0x31
   14a18:	00071e63          	bnez	a4,14a34 <ediv+0x98>
   14a1c:	01298693          	add	a3,s3,18
   14a20:	00098793          	mv	a5,s3
   14a24:	0007d703          	lhu	a4,0(a5)
   14a28:	00278793          	add	a5,a5,2
   14a2c:	0e071863          	bnez	a4,14b1c <ediv+0x180>
   14a30:	fed79ae3          	bne	a5,a3,14a24 <ediv+0x88>
   14a34:	00022a37          	lui	s4,0x22
   14a38:	2a8a0593          	add	a1,s4,680 # 222a8 <ezero>
   14a3c:	00048513          	mv	a0,s1
   14a40:	e94ff0ef          	jal	140d4 <ecmp>
   14a44:	18050a63          	beqz	a0,14bd8 <ediv+0x23c>
   14a48:	0124d603          	lhu	a2,18(s1)
   14a4c:	000087b7          	lui	a5,0x8
   14a50:	fff78793          	add	a5,a5,-1 # 7fff <exit-0x80e9>
   14a54:	00f67533          	and	a0,a2,a5
   14a58:	0ef51063          	bne	a0,a5,14b38 <ediv+0x19c>
   14a5c:	01248693          	add	a3,s1,18
   14a60:	00048793          	mv	a5,s1
   14a64:	0007d703          	lhu	a4,0(a5)
   14a68:	00278793          	add	a5,a5,2
   14a6c:	0c071663          	bnez	a4,14b38 <ediv+0x19c>
   14a70:	fed79ae3          	bne	a5,a3,14a64 <ediv+0xc8>
   14a74:	0129d703          	lhu	a4,18(s3)
   14a78:	fff74793          	not	a5,a4
   14a7c:	03179693          	sll	a3,a5,0x31
   14a80:	14069263          	bnez	a3,14bc4 <ediv+0x228>
   14a84:	01298693          	add	a3,s3,18
   14a88:	00098793          	mv	a5,s3
   14a8c:	0007d583          	lhu	a1,0(a5)
   14a90:	00278793          	add	a5,a5,2
   14a94:	48059c63          	bnez	a1,14f2c <ediv+0x590>
   14a98:	fed79ae3          	bne	a5,a3,14a8c <ediv+0xf0>
   14a9c:	01040713          	add	a4,s0,16
   14aa0:	00040793          	mv	a5,s0
   14aa4:	00278793          	add	a5,a5,2
   14aa8:	fe079f23          	sh	zero,-2(a5)
   14aac:	fee79ce3          	bne	a5,a4,14aa4 <ediv+0x108>
   14ab0:	ffffc7b7          	lui	a5,0xffffc
   14ab4:	00f41823          	sh	a5,16(s0)
   14ab8:	ffff87b7          	lui	a5,0xffff8
   14abc:	fff7c793          	not	a5,a5
   14ac0:	00f41923          	sh	a5,18(s0)
   14ac4:	0e813083          	ld	ra,232(sp)
   14ac8:	0e013403          	ld	s0,224(sp)
   14acc:	0d813483          	ld	s1,216(sp)
   14ad0:	0d013903          	ld	s2,208(sp)
   14ad4:	0c813983          	ld	s3,200(sp)
   14ad8:	0c013a03          	ld	s4,192(sp)
   14adc:	0b813a83          	ld	s5,184(sp)
   14ae0:	0b013b03          	ld	s6,176(sp)
   14ae4:	0a813b83          	ld	s7,168(sp)
   14ae8:	0a013c03          	ld	s8,160(sp)
   14aec:	09813c83          	ld	s9,152(sp)
   14af0:	09013d03          	ld	s10,144(sp)
   14af4:	08813d83          	ld	s11,136(sp)
   14af8:	0f010113          	add	sp,sp,240
   14afc:	00008067          	ret
   14b00:	01448713          	add	a4,s1,20
   14b04:	0004d783          	lhu	a5,0(s1)
   14b08:	00248493          	add	s1,s1,2
   14b0c:	00240413          	add	s0,s0,2
   14b10:	fef41f23          	sh	a5,-2(s0)
   14b14:	fee498e3          	bne	s1,a4,14b04 <ediv+0x168>
   14b18:	fadff06f          	j	14ac4 <ediv+0x128>
   14b1c:	01440713          	add	a4,s0,20
   14b20:	0009d783          	lhu	a5,0(s3)
   14b24:	00240413          	add	s0,s0,2
   14b28:	00298993          	add	s3,s3,2
   14b2c:	fef41f23          	sh	a5,-2(s0)
   14b30:	fee418e3          	bne	s0,a4,14b20 <ediv+0x184>
   14b34:	f91ff06f          	j	14ac4 <ediv+0x128>
   14b38:	0129d703          	lhu	a4,18(s3)
   14b3c:	fff74793          	not	a5,a4
   14b40:	03179693          	sll	a3,a5,0x31
   14b44:	0a069463          	bnez	a3,14bec <ediv+0x250>
   14b48:	00000813          	li	a6,0
   14b4c:	01298693          	add	a3,s3,18
   14b50:	00098793          	mv	a5,s3
   14b54:	0007d583          	lhu	a1,0(a5) # ffffffffffff8000 <__BSS_END__+0xfffffffffffd31e8>
   14b58:	00278793          	add	a5,a5,2
   14b5c:	06059263          	bnez	a1,14bc0 <ediv+0x224>
   14b60:	fed79ae3          	bne	a5,a3,14b54 <ediv+0x1b8>
   14b64:	000087b7          	lui	a5,0x8
   14b68:	fff78793          	add	a5,a5,-1 # 7fff <exit-0x80e9>
   14b6c:	0cf50863          	beq	a0,a5,14c3c <ediv+0x2a0>
   14b70:	00f65613          	srl	a2,a2,0xf
   14b74:	0009d783          	lhu	a5,0(s3)
   14b78:	00298993          	add	s3,s3,2
   14b7c:	3a079063          	bnez	a5,14f1c <ediv+0x580>
   14b80:	fed99ae3          	bne	s3,a3,14b74 <ediv+0x1d8>
   14b84:	00f75793          	srl	a5,a4,0xf
   14b88:	00c7c7b3          	xor	a5,a5,a2
   14b8c:	00f7979b          	sllw	a5,a5,0xf
   14b90:	00f41923          	sh	a5,18(s0)
   14b94:	01240713          	add	a4,s0,18
   14b98:	00040793          	mv	a5,s0
   14b9c:	00278793          	add	a5,a5,2
   14ba0:	fe079f23          	sh	zero,-2(a5)
   14ba4:	fee79ce3          	bne	a5,a4,14b9c <ediv+0x200>
   14ba8:	01245783          	lhu	a5,18(s0)
   14bac:	00008737          	lui	a4,0x8
   14bb0:	fff70713          	add	a4,a4,-1 # 7fff <exit-0x80e9>
   14bb4:	00e7e7b3          	or	a5,a5,a4
   14bb8:	00f41923          	sh	a5,18(s0)
   14bbc:	f09ff06f          	j	14ac4 <ediv+0x128>
   14bc0:	02080663          	beqz	a6,14bec <ediv+0x250>
   14bc4:	01440793          	add	a5,s0,20
   14bc8:	00240413          	add	s0,s0,2
   14bcc:	fe041f23          	sh	zero,-2(s0)
   14bd0:	fef41ce3          	bne	s0,a5,14bc8 <ediv+0x22c>
   14bd4:	ef1ff06f          	j	14ac4 <ediv+0x128>
   14bd8:	2a8a0593          	add	a1,s4,680
   14bdc:	00098513          	mv	a0,s3
   14be0:	cf4ff0ef          	jal	140d4 <ecmp>
   14be4:	e60512e3          	bnez	a0,14a48 <ediv+0xac>
   14be8:	eb5ff06f          	j	14a9c <ediv+0x100>
   14bec:	02010593          	add	a1,sp,32
   14bf0:	00048513          	mv	a0,s1
   14bf4:	c28ff0ef          	jal	1401c <emovi>
   14bf8:	04010593          	add	a1,sp,64
   14bfc:	00098513          	mv	a0,s3
   14c00:	c1cff0ef          	jal	1401c <emovi>
   14c04:	04215b03          	lhu	s6,66(sp)
   14c08:	02215c03          	lhu	s8,34(sp)
   14c0c:	040b1463          	bnez	s6,14c54 <ediv+0x2b8>
   14c10:	04210793          	add	a5,sp,66
   14c14:	05810c93          	add	s9,sp,88
   14c18:	0007d703          	lhu	a4,0(a5)
   14c1c:	00278793          	add	a5,a5,2
   14c20:	2c071a63          	bnez	a4,14ef4 <ediv+0x558>
   14c24:	fefc9ae3          	bne	s9,a5,14c18 <ediv+0x27c>
   14c28:	01440793          	add	a5,s0,20
   14c2c:	00240413          	add	s0,s0,2
   14c30:	fe041f23          	sh	zero,-2(s0)
   14c34:	fef41ce3          	bne	s0,a5,14c2c <ediv+0x290>
   14c38:	e8dff06f          	j	14ac4 <ediv+0x128>
   14c3c:	01248593          	add	a1,s1,18
   14c40:	0004d783          	lhu	a5,0(s1)
   14c44:	00248493          	add	s1,s1,2
   14c48:	2c079e63          	bnez	a5,14f24 <ediv+0x588>
   14c4c:	feb49ae3          	bne	s1,a1,14c40 <ediv+0x2a4>
   14c50:	f21ff06f          	j	14b70 <ediv+0x1d4>
   14c54:	01613423          	sd	s6,8(sp)
   14c58:	040c1663          	bnez	s8,14ca4 <ediv+0x308>
   14c5c:	02210793          	add	a5,sp,34
   14c60:	03810693          	add	a3,sp,56
   14c64:	0007d703          	lhu	a4,0(a5)
   14c68:	00278793          	add	a5,a5,2
   14c6c:	28071e63          	bnez	a4,14f08 <ediv+0x56c>
   14c70:	fed79ae3          	bne	a5,a3,14c64 <ediv+0x2c8>
   14c74:	02015683          	lhu	a3,32(sp)
   14c78:	04015603          	lhu	a2,64(sp)
   14c7c:	01240713          	add	a4,s0,18
   14c80:	00040793          	mv	a5,s0
   14c84:	40c686b3          	sub	a3,a3,a2
   14c88:	00d036b3          	snez	a3,a3
   14c8c:	00f6969b          	sllw	a3,a3,0xf
   14c90:	00d41923          	sh	a3,18(s0)
   14c94:	00278793          	add	a5,a5,2
   14c98:	fe079f23          	sh	zero,-2(a5)
   14c9c:	fee79ce3          	bne	a5,a4,14c94 <ediv+0x2f8>
   14ca0:	f09ff06f          	j	14ba8 <ediv+0x20c>
   14ca4:	01813823          	sd	s8,16(sp)
   14ca8:	04012783          	lw	a5,64(sp)
   14cac:	03890493          	add	s1,s2,56
   14cb0:	03490713          	add	a4,s2,52
   14cb4:	02f92a23          	sw	a5,52(s2)
   14cb8:	00e13c23          	sd	a4,24(sp)
   14cbc:	04e90993          	add	s3,s2,78
   14cc0:	00048793          	mv	a5,s1
   14cc4:	00278793          	add	a5,a5,2
   14cc8:	fe079f23          	sh	zero,-2(a5)
   14ccc:	ff379ce3          	bne	a5,s3,14cc4 <ediv+0x328>
   14cd0:	04010513          	add	a0,sp,64
   14cd4:	de9fe0ef          	jal	13abc <eshdn1>
   14cd8:	02615b83          	lhu	s7,38(sp)
   14cdc:	00010a37          	lui	s4,0x10
   14ce0:	04210d13          	add	s10,sp,66
   14ce4:	010b9a93          	sll	s5,s7,0x10
   14ce8:	417a8ab3          	sub	s5,s5,s7
   14cec:	05810c93          	add	s9,sp,88
   14cf0:	fffa0a13          	add	s4,s4,-1 # ffff <exit-0xe9>
   14cf4:	07a10d93          	add	s11,sp,122
   14cf8:	06210c13          	add	s8,sp,98
   14cfc:	04415503          	lhu	a0,68(sp)
   14d00:	04615783          	lhu	a5,70(sp)
   14d04:	000a0b13          	mv	s6,s4
   14d08:	01051513          	sll	a0,a0,0x10
   14d0c:	00f50533          	add	a0,a0,a5
   14d10:	00aaea63          	bltu	s5,a0,14d24 <ediv+0x388>
   14d14:	000b8593          	mv	a1,s7
   14d18:	6bd0c0ef          	jal	21bd4 <__hidden___udivdi3>
   14d1c:	03051b13          	sll	s6,a0,0x30
   14d20:	030b5b13          	srl	s6,s6,0x30
   14d24:	06010613          	add	a2,sp,96
   14d28:	02010593          	add	a1,sp,32
   14d2c:	000b0513          	mv	a0,s6
   14d30:	e31fe0ef          	jal	13b60 <m16m>
   14d34:	04410713          	add	a4,sp,68
   14d38:	06410793          	add	a5,sp,100
   14d3c:	0007d603          	lhu	a2,0(a5)
   14d40:	00075683          	lhu	a3,0(a4)
   14d44:	00278793          	add	a5,a5,2
   14d48:	00270713          	add	a4,a4,2
   14d4c:	0ed61a63          	bne	a2,a3,14e40 <ediv+0x4a4>
   14d50:	ffb796e3          	bne	a5,s11,14d3c <ediv+0x3a0>
   14d54:	00000693          	li	a3,0
   14d58:	07810613          	add	a2,sp,120
   14d5c:	000c8793          	mv	a5,s9
   14d60:	0007d703          	lhu	a4,0(a5)
   14d64:	00065583          	lhu	a1,0(a2)
   14d68:	ffe78793          	add	a5,a5,-2
   14d6c:	ffe60613          	add	a2,a2,-2
   14d70:	40b70733          	sub	a4,a4,a1
   14d74:	40d70733          	sub	a4,a4,a3
   14d78:	01075693          	srl	a3,a4,0x10
   14d7c:	00e79123          	sh	a4,2(a5)
   14d80:	0016f693          	and	a3,a3,1
   14d84:	fda79ee3          	bne	a5,s10,14d60 <ediv+0x3c4>
   14d88:	01649023          	sh	s6,0(s1)
   14d8c:	04410793          	add	a5,sp,68
   14d90:	0027d703          	lhu	a4,2(a5)
   14d94:	00278793          	add	a5,a5,2
   14d98:	fee79f23          	sh	a4,-2(a5)
   14d9c:	ff979ae3          	bne	a5,s9,14d90 <ediv+0x3f4>
   14da0:	04011c23          	sh	zero,88(sp)
   14da4:	00248493          	add	s1,s1,2
   14da8:	f4999ae3          	bne	s3,s1,14cfc <ediv+0x360>
   14dac:	00000713          	li	a4,0
   14db0:	04410793          	add	a5,sp,68
   14db4:	05a10693          	add	a3,sp,90
   14db8:	0007d603          	lhu	a2,0(a5)
   14dbc:	00278793          	add	a5,a5,2
   14dc0:	00c76733          	or	a4,a4,a2
   14dc4:	fed79ae3          	bne	a5,a3,14db8 <ediv+0x41c>
   14dc8:	01813483          	ld	s1,24(sp)
   14dcc:	0007071b          	sext.w	a4,a4
   14dd0:	00e035b3          	snez	a1,a4
   14dd4:	04010793          	add	a5,sp,64
   14dd8:	0004d703          	lhu	a4,0(s1)
   14ddc:	00278793          	add	a5,a5,2
   14de0:	00248493          	add	s1,s1,2
   14de4:	fee79f23          	sh	a4,-2(a5)
   14de8:	fef698e3          	bne	a3,a5,14dd8 <ediv+0x43c>
   14dec:	00813783          	ld	a5,8(sp)
   14df0:	01013703          	ld	a4,16(sp)
   14df4:	000046b7          	lui	a3,0x4
   14df8:	fff68693          	add	a3,a3,-1 # 3fff <exit-0xc0e9>
   14dfc:	40e78b33          	sub	s6,a5,a4
   14e00:	04010513          	add	a0,sp,64
   14e04:	00090793          	mv	a5,s2
   14e08:	04000713          	li	a4,64
   14e0c:	00db06b3          	add	a3,s6,a3
   14e10:	00000613          	li	a2,0
   14e14:	c10ff0ef          	jal	14224 <emdnorm>
   14e18:	04015703          	lhu	a4,64(sp)
   14e1c:	02015783          	lhu	a5,32(sp)
   14e20:	00040593          	mv	a1,s0
   14e24:	04010513          	add	a0,sp,64
   14e28:	40e787b3          	sub	a5,a5,a4
   14e2c:	00f037b3          	snez	a5,a5
   14e30:	40f007bb          	negw	a5,a5
   14e34:	04f11023          	sh	a5,64(sp)
   14e38:	df9fe0ef          	jal	13c30 <emovo.constprop.0>
   14e3c:	c89ff06f          	j	14ac4 <ediv+0x128>
   14e40:	f0c6fae3          	bgeu	a3,a2,14d54 <ediv+0x3b8>
   14e44:	fffb079b          	addw	a5,s6,-1
   14e48:	03079513          	sll	a0,a5,0x30
   14e4c:	03055513          	srl	a0,a0,0x30
   14e50:	00000693          	li	a3,0
   14e54:	03810613          	add	a2,sp,56
   14e58:	07810713          	add	a4,sp,120
   14e5c:	00075783          	lhu	a5,0(a4)
   14e60:	00065583          	lhu	a1,0(a2)
   14e64:	ffe70713          	add	a4,a4,-2
   14e68:	ffe60613          	add	a2,a2,-2
   14e6c:	40b787b3          	sub	a5,a5,a1
   14e70:	40d787b3          	sub	a5,a5,a3
   14e74:	0107d693          	srl	a3,a5,0x10
   14e78:	00f71123          	sh	a5,2(a4)
   14e7c:	0016f693          	and	a3,a3,1
   14e80:	fd871ee3          	bne	a4,s8,14e5c <ediv+0x4c0>
   14e84:	04410713          	add	a4,sp,68
   14e88:	06410793          	add	a5,sp,100
   14e8c:	0007d603          	lhu	a2,0(a5)
   14e90:	00075683          	lhu	a3,0(a4)
   14e94:	00278793          	add	a5,a5,2
   14e98:	00270713          	add	a4,a4,2
   14e9c:	00d61863          	bne	a2,a3,14eac <ediv+0x510>
   14ea0:	ffb796e3          	bne	a5,s11,14e8c <ediv+0x4f0>
   14ea4:	00050b13          	mv	s6,a0
   14ea8:	eadff06f          	j	14d54 <ediv+0x3b8>
   14eac:	fec6fce3          	bgeu	a3,a2,14ea4 <ediv+0x508>
   14eb0:	ffeb031b          	addw	t1,s6,-2
   14eb4:	03031b13          	sll	s6,t1,0x30
   14eb8:	030b5b13          	srl	s6,s6,0x30
   14ebc:	00000693          	li	a3,0
   14ec0:	03810613          	add	a2,sp,56
   14ec4:	07810713          	add	a4,sp,120
   14ec8:	00075783          	lhu	a5,0(a4)
   14ecc:	00065583          	lhu	a1,0(a2)
   14ed0:	ffe70713          	add	a4,a4,-2
   14ed4:	ffe60613          	add	a2,a2,-2
   14ed8:	40b787b3          	sub	a5,a5,a1
   14edc:	40d787b3          	sub	a5,a5,a3
   14ee0:	0107d693          	srl	a3,a5,0x10
   14ee4:	00f71123          	sh	a5,2(a4)
   14ee8:	0016f693          	and	a3,a3,1
   14eec:	fd871ee3          	bne	a4,s8,14ec8 <ediv+0x52c>
   14ef0:	e65ff06f          	j	14d54 <ediv+0x3b8>
   14ef4:	04010513          	add	a0,sp,64
   14ef8:	df5fe0ef          	jal	13cec <enormlz>
   14efc:	40a007b3          	neg	a5,a0
   14f00:	00f13423          	sd	a5,8(sp)
   14f04:	d55ff06f          	j	14c58 <ediv+0x2bc>
   14f08:	02010513          	add	a0,sp,32
   14f0c:	de1fe0ef          	jal	13cec <enormlz>
   14f10:	40a007b3          	neg	a5,a0
   14f14:	00f13823          	sd	a5,16(sp)
   14f18:	d91ff06f          	j	14ca8 <ediv+0x30c>
   14f1c:	00000793          	li	a5,0
   14f20:	c69ff06f          	j	14b88 <ediv+0x1ec>
   14f24:	00000613          	li	a2,0
   14f28:	c4dff06f          	j	14b74 <ediv+0x1d8>
   14f2c:	00100813          	li	a6,1
   14f30:	c21ff06f          	j	14b50 <ediv+0x1b4>

0000000000014f34 <emul>:
   14f34:	01255803          	lhu	a6,18(a0)
   14f38:	00008737          	lui	a4,0x8
   14f3c:	f4010113          	add	sp,sp,-192
   14f40:	fff70713          	add	a4,a4,-1 # 7fff <exit-0x80e9>
   14f44:	0a813823          	sd	s0,176(sp)
   14f48:	0a913423          	sd	s1,168(sp)
   14f4c:	0b213023          	sd	s2,160(sp)
   14f50:	09513423          	sd	s5,136(sp)
   14f54:	00050493          	mv	s1,a0
   14f58:	0a113c23          	sd	ra,184(sp)
   14f5c:	09313c23          	sd	s3,152(sp)
   14f60:	09413823          	sd	s4,144(sp)
   14f64:	09613023          	sd	s6,128(sp)
   14f68:	07713c23          	sd	s7,120(sp)
   14f6c:	07813823          	sd	s8,112(sp)
   14f70:	07913423          	sd	s9,104(sp)
   14f74:	07a13023          	sd	s10,96(sp)
   14f78:	00e87533          	and	a0,a6,a4
   14f7c:	00058913          	mv	s2,a1
   14f80:	00060413          	mv	s0,a2
   14f84:	00068a93          	mv	s5,a3
   14f88:	18e51663          	bne	a0,a4,15114 <emul+0x1e0>
   14f8c:	01248993          	add	s3,s1,18
   14f90:	00048713          	mv	a4,s1
   14f94:	00075603          	lhu	a2,0(a4)
   14f98:	00270713          	add	a4,a4,2
   14f9c:	20061463          	bnez	a2,151a4 <emul+0x270>
   14fa0:	ff371ae3          	bne	a4,s3,14f94 <emul+0x60>
   14fa4:	01295603          	lhu	a2,18(s2)
   14fa8:	fff64793          	not	a5,a2
   14fac:	03179713          	sll	a4,a5,0x31
   14fb0:	16070863          	beqz	a4,15120 <emul+0x1ec>
   14fb4:	00048793          	mv	a5,s1
   14fb8:	0007d703          	lhu	a4,0(a5)
   14fbc:	00278793          	add	a5,a5,2
   14fc0:	28071063          	bnez	a4,15240 <emul+0x30c>
   14fc4:	ff379ae3          	bne	a5,s3,14fb8 <emul+0x84>
   14fc8:	000225b7          	lui	a1,0x22
   14fcc:	2a858593          	add	a1,a1,680 # 222a8 <ezero>
   14fd0:	00090513          	mv	a0,s2
   14fd4:	900ff0ef          	jal	140d4 <ecmp>
   14fd8:	28050e63          	beqz	a0,15274 <emul+0x340>
   14fdc:	01295603          	lhu	a2,18(s2)
   14fe0:	000085b7          	lui	a1,0x8
   14fe4:	fff58593          	add	a1,a1,-1 # 7fff <exit-0x80e9>
   14fe8:	00b67733          	and	a4,a2,a1
   14fec:	00070693          	mv	a3,a4
   14ff0:	01290793          	add	a5,s2,18
   14ff4:	40b71e63          	bne	a4,a1,15410 <emul+0x4dc>
   14ff8:	00090713          	mv	a4,s2
   14ffc:	00075683          	lhu	a3,0(a4)
   15000:	00270713          	add	a4,a4,2
   15004:	20069263          	bnez	a3,15208 <emul+0x2d4>
   15008:	fee79ae3          	bne	a5,a4,14ffc <emul+0xc8>
   1500c:	000225b7          	lui	a1,0x22
   15010:	2a858593          	add	a1,a1,680 # 222a8 <ezero>
   15014:	00048513          	mv	a0,s1
   15018:	8bcff0ef          	jal	140d4 <ecmp>
   1501c:	24050c63          	beqz	a0,15274 <emul+0x340>
   15020:	0124d803          	lhu	a6,18(s1)
   15024:	01295603          	lhu	a2,18(s2)
   15028:	000087b7          	lui	a5,0x8
   1502c:	fff78793          	add	a5,a5,-1 # 7fff <exit-0x80e9>
   15030:	00f87733          	and	a4,a6,a5
   15034:	00f676b3          	and	a3,a2,a5
   15038:	00070593          	mv	a1,a4
   1503c:	1ef70263          	beq	a4,a5,15220 <emul+0x2ec>
   15040:	00068713          	mv	a4,a3
   15044:	00058693          	mv	a3,a1
   15048:	000087b7          	lui	a5,0x8
   1504c:	0007071b          	sext.w	a4,a4
   15050:	fff78793          	add	a5,a5,-1 # 7fff <exit-0x80e9>
   15054:	0ef71e63          	bne	a4,a5,15150 <emul+0x21c>
   15058:	01290793          	add	a5,s2,18
   1505c:	00090713          	mv	a4,s2
   15060:	00075583          	lhu	a1,0(a4)
   15064:	00270713          	add	a4,a4,2
   15068:	0e059463          	bnez	a1,15150 <emul+0x21c>
   1506c:	fef71ae3          	bne	a4,a5,15060 <emul+0x12c>
   15070:	000085b7          	lui	a1,0x8
   15074:	fff58593          	add	a1,a1,-1 # 7fff <exit-0x80e9>
   15078:	0006871b          	sext.w	a4,a3
   1507c:	01248993          	add	s3,s1,18
   15080:	22b69063          	bne	a3,a1,152a0 <emul+0x36c>
   15084:	0004d783          	lhu	a5,0(s1)
   15088:	00248493          	add	s1,s1,2
   1508c:	20079e63          	bnez	a5,152a8 <emul+0x374>
   15090:	fe999ae3          	bne	s3,s1,15084 <emul+0x150>
   15094:	00f85813          	srl	a6,a6,0xf
   15098:	000087b7          	lui	a5,0x8
   1509c:	fff78793          	add	a5,a5,-1 # 7fff <exit-0x80e9>
   150a0:	1af70e63          	beq	a4,a5,1525c <emul+0x328>
   150a4:	00f65793          	srl	a5,a2,0xf
   150a8:	0107c7b3          	xor	a5,a5,a6
   150ac:	00f7979b          	sllw	a5,a5,0xf
   150b0:	00f41923          	sh	a5,18(s0)
   150b4:	01240713          	add	a4,s0,18
   150b8:	00040793          	mv	a5,s0
   150bc:	00278793          	add	a5,a5,2
   150c0:	fe079f23          	sh	zero,-2(a5)
   150c4:	fee79ce3          	bne	a5,a4,150bc <emul+0x188>
   150c8:	01245783          	lhu	a5,18(s0)
   150cc:	00008737          	lui	a4,0x8
   150d0:	fff70713          	add	a4,a4,-1 # 7fff <exit-0x80e9>
   150d4:	00e7e7b3          	or	a5,a5,a4
   150d8:	00f41923          	sh	a5,18(s0)
   150dc:	0b813083          	ld	ra,184(sp)
   150e0:	0b013403          	ld	s0,176(sp)
   150e4:	0a813483          	ld	s1,168(sp)
   150e8:	0a013903          	ld	s2,160(sp)
   150ec:	09813983          	ld	s3,152(sp)
   150f0:	09013a03          	ld	s4,144(sp)
   150f4:	08813a83          	ld	s5,136(sp)
   150f8:	08013b03          	ld	s6,128(sp)
   150fc:	07813b83          	ld	s7,120(sp)
   15100:	07013c03          	ld	s8,112(sp)
   15104:	06813c83          	ld	s9,104(sp)
   15108:	06013d03          	ld	s10,96(sp)
   1510c:	0c010113          	add	sp,sp,192
   15110:	00008067          	ret
   15114:	0125d603          	lhu	a2,18(a1)
   15118:	00e677b3          	and	a5,a2,a4
   1511c:	02e79a63          	bne	a5,a4,15150 <emul+0x21c>
   15120:	01290793          	add	a5,s2,18
   15124:	00090713          	mv	a4,s2
   15128:	00075683          	lhu	a3,0(a4)
   1512c:	00270713          	add	a4,a4,2
   15130:	08069863          	bnez	a3,151c0 <emul+0x28c>
   15134:	fef71ae3          	bne	a4,a5,15128 <emul+0x1f4>
   15138:	00008737          	lui	a4,0x8
   1513c:	fff70713          	add	a4,a4,-1 # 7fff <exit-0x80e9>
   15140:	01248993          	add	s3,s1,18
   15144:	e6e508e3          	beq	a0,a4,14fb4 <emul+0x80>
   15148:	00e676b3          	and	a3,a2,a4
   1514c:	eae686e3          	beq	a3,a4,14ff8 <emul+0xc4>
   15150:	00048513          	mv	a0,s1
   15154:	00010593          	mv	a1,sp
   15158:	ec5fe0ef          	jal	1401c <emovi>
   1515c:	00090513          	mv	a0,s2
   15160:	02010593          	add	a1,sp,32
   15164:	eb9fe0ef          	jal	1401c <emovi>
   15168:	00215903          	lhu	s2,2(sp)
   1516c:	02215483          	lhu	s1,34(sp)
   15170:	06090663          	beqz	s2,151dc <emul+0x2a8>
   15174:	14049a63          	bnez	s1,152c8 <emul+0x394>
   15178:	02210793          	add	a5,sp,34
   1517c:	03810693          	add	a3,sp,56
   15180:	0007d703          	lhu	a4,0(a5)
   15184:	00278793          	add	a5,a5,2
   15188:	26071a63          	bnez	a4,153fc <emul+0x4c8>
   1518c:	fed79ae3          	bne	a5,a3,15180 <emul+0x24c>
   15190:	01440793          	add	a5,s0,20
   15194:	00240413          	add	s0,s0,2
   15198:	fe041f23          	sh	zero,-2(s0)
   1519c:	fe879ce3          	bne	a5,s0,15194 <emul+0x260>
   151a0:	f3dff06f          	j	150dc <emul+0x1a8>
   151a4:	01440713          	add	a4,s0,20
   151a8:	0004d783          	lhu	a5,0(s1)
   151ac:	00240413          	add	s0,s0,2
   151b0:	00248493          	add	s1,s1,2
   151b4:	fef41f23          	sh	a5,-2(s0)
   151b8:	fee418e3          	bne	s0,a4,151a8 <emul+0x274>
   151bc:	f21ff06f          	j	150dc <emul+0x1a8>
   151c0:	01490713          	add	a4,s2,20
   151c4:	00095783          	lhu	a5,0(s2)
   151c8:	00290913          	add	s2,s2,2
   151cc:	00240413          	add	s0,s0,2
   151d0:	fef41f23          	sh	a5,-2(s0)
   151d4:	ff2718e3          	bne	a4,s2,151c4 <emul+0x290>
   151d8:	f05ff06f          	j	150dc <emul+0x1a8>
   151dc:	00210793          	add	a5,sp,2
   151e0:	01810693          	add	a3,sp,24
   151e4:	0007d703          	lhu	a4,0(a5)
   151e8:	00278793          	add	a5,a5,2
   151ec:	20071063          	bnez	a4,153ec <emul+0x4b8>
   151f0:	fef69ae3          	bne	a3,a5,151e4 <emul+0x2b0>
   151f4:	01440793          	add	a5,s0,20
   151f8:	00240413          	add	s0,s0,2
   151fc:	fe041f23          	sh	zero,-2(s0)
   15200:	fef41ce3          	bne	s0,a5,151f8 <emul+0x2c4>
   15204:	ed9ff06f          	j	150dc <emul+0x1a8>
   15208:	0124d803          	lhu	a6,18(s1)
   1520c:	000085b7          	lui	a1,0x8
   15210:	fff58593          	add	a1,a1,-1 # 7fff <exit-0x80e9>
   15214:	00b87733          	and	a4,a6,a1
   15218:	00070693          	mv	a3,a4
   1521c:	e4b710e3          	bne	a4,a1,1505c <emul+0x128>
   15220:	01248993          	add	s3,s1,18
   15224:	00048793          	mv	a5,s1
   15228:	0007d703          	lhu	a4,0(a5)
   1522c:	00278793          	add	a5,a5,2
   15230:	08071463          	bnez	a4,152b8 <emul+0x384>
   15234:	fef99ae3          	bne	s3,a5,15228 <emul+0x2f4>
   15238:	0006871b          	sext.w	a4,a3
   1523c:	e49ff06f          	j	15084 <emul+0x150>
   15240:	000085b7          	lui	a1,0x8
   15244:	fff58593          	add	a1,a1,-1 # 7fff <exit-0x80e9>
   15248:	00b67733          	and	a4,a2,a1
   1524c:	00070693          	mv	a3,a4
   15250:	01290793          	add	a5,s2,18
   15254:	dab702e3          	beq	a4,a1,14ff8 <emul+0xc4>
   15258:	fcdff06f          	j	15224 <emul+0x2f0>
   1525c:	01290793          	add	a5,s2,18
   15260:	00095703          	lhu	a4,0(s2)
   15264:	00290913          	add	s2,s2,2
   15268:	04071463          	bnez	a4,152b0 <emul+0x37c>
   1526c:	ff279ae3          	bne	a5,s2,15260 <emul+0x32c>
   15270:	e35ff06f          	j	150a4 <emul+0x170>
   15274:	01040713          	add	a4,s0,16
   15278:	00040793          	mv	a5,s0
   1527c:	00278793          	add	a5,a5,2
   15280:	fe079f23          	sh	zero,-2(a5)
   15284:	fef71ce3          	bne	a4,a5,1527c <emul+0x348>
   15288:	ffffc7b7          	lui	a5,0xffffc
   1528c:	00f41823          	sh	a5,16(s0)
   15290:	ffff87b7          	lui	a5,0xffff8
   15294:	fff7c793          	not	a5,a5
   15298:	00f41923          	sh	a5,18(s0)
   1529c:	e41ff06f          	j	150dc <emul+0x1a8>
   152a0:	00f85813          	srl	a6,a6,0xf
   152a4:	fbdff06f          	j	15260 <emul+0x32c>
   152a8:	00000813          	li	a6,0
   152ac:	dedff06f          	j	15098 <emul+0x164>
   152b0:	00000793          	li	a5,0
   152b4:	df5ff06f          	j	150a8 <emul+0x174>
   152b8:	00068713          	mv	a4,a3
   152bc:	000086b7          	lui	a3,0x8
   152c0:	fff68693          	add	a3,a3,-1 # 7fff <exit-0x80e9>
   152c4:	d85ff06f          	j	15048 <emul+0x114>
   152c8:	00048993          	mv	s3,s1
   152cc:	02015783          	lhu	a5,32(sp)
   152d0:	0104949b          	sllw	s1,s1,0x10
   152d4:	038a8a13          	add	s4,s5,56
   152d8:	0097e7b3          	or	a5,a5,s1
   152dc:	02faaa23          	sw	a5,52(s5)
   152e0:	034a8493          	add	s1,s5,52
   152e4:	000a0793          	mv	a5,s4
   152e8:	04ea8713          	add	a4,s5,78
   152ec:	00079023          	sh	zero,0(a5) # ffffffffffff8000 <__BSS_END__+0xfffffffffffd31e8>
   152f0:	00278793          	add	a5,a5,2
   152f4:	fee79ce3          	bne	a5,a4,152ec <emul+0x3b8>
   152f8:	04ca8c93          	add	s9,s5,76
   152fc:	00000c13          	li	s8,0
   15300:	01810b13          	add	s6,sp,24
   15304:	00410d13          	add	s10,sp,4
   15308:	04210b93          	add	s7,sp,66
   1530c:	000b5503          	lhu	a0,0(s6)
   15310:	ffeb0b13          	add	s6,s6,-2
   15314:	08051a63          	bnez	a0,153a8 <emul+0x474>
   15318:	04cad783          	lhu	a5,76(s5)
   1531c:	000c8713          	mv	a4,s9
   15320:	00fc6c33          	or	s8,s8,a5
   15324:	ffe75603          	lhu	a2,-2(a4)
   15328:	ffe70713          	add	a4,a4,-2
   1532c:	00c71123          	sh	a2,2(a4)
   15330:	feea1ae3          	bne	s4,a4,15324 <emul+0x3f0>
   15334:	020a9c23          	sh	zero,56(s5)
   15338:	fdab1ae3          	bne	s6,s10,1530c <emul+0x3d8>
   1533c:	02010793          	add	a5,sp,32
   15340:	03a10693          	add	a3,sp,58
   15344:	0004d703          	lhu	a4,0(s1)
   15348:	00278793          	add	a5,a5,2
   1534c:	00248493          	add	s1,s1,2
   15350:	fee79f23          	sh	a4,-2(a5)
   15354:	fed798e3          	bne	a5,a3,15344 <emul+0x410>
   15358:	ffffc6b7          	lui	a3,0xffffc
   1535c:	01390933          	add	s2,s2,s3
   15360:	00268693          	add	a3,a3,2 # ffffffffffffc002 <__BSS_END__+0xfffffffffffd71ea>
   15364:	000c0593          	mv	a1,s8
   15368:	02010513          	add	a0,sp,32
   1536c:	000a8793          	mv	a5,s5
   15370:	04000713          	li	a4,64
   15374:	00d906b3          	add	a3,s2,a3
   15378:	00000613          	li	a2,0
   1537c:	ea9fe0ef          	jal	14224 <emdnorm>
   15380:	02015703          	lhu	a4,32(sp)
   15384:	00015783          	lhu	a5,0(sp)
   15388:	00040593          	mv	a1,s0
   1538c:	02010513          	add	a0,sp,32
   15390:	40e787b3          	sub	a5,a5,a4
   15394:	00f037b3          	snez	a5,a5
   15398:	40f007bb          	negw	a5,a5
   1539c:	02f11023          	sh	a5,32(sp)
   153a0:	891fe0ef          	jal	13c30 <emovo.constprop.0>
   153a4:	d39ff06f          	j	150dc <emul+0x1a8>
   153a8:	04010613          	add	a2,sp,64
   153ac:	02010593          	add	a1,sp,32
   153b0:	fb0fe0ef          	jal	13b60 <m16m>
   153b4:	000c8513          	mv	a0,s9
   153b8:	00000593          	li	a1,0
   153bc:	05810613          	add	a2,sp,88
   153c0:	00055783          	lhu	a5,0(a0)
   153c4:	00065703          	lhu	a4,0(a2)
   153c8:	ffe50513          	add	a0,a0,-2
   153cc:	ffe60613          	add	a2,a2,-2
   153d0:	00f70733          	add	a4,a4,a5
   153d4:	00b70733          	add	a4,a4,a1
   153d8:	01075593          	srl	a1,a4,0x10
   153dc:	00e51123          	sh	a4,2(a0)
   153e0:	0015f593          	and	a1,a1,1
   153e4:	fd761ee3          	bne	a2,s7,153c0 <emul+0x48c>
   153e8:	f31ff06f          	j	15318 <emul+0x3e4>
   153ec:	00010513          	mv	a0,sp
   153f0:	8fdfe0ef          	jal	13cec <enormlz>
   153f4:	40a00933          	neg	s2,a0
   153f8:	d7dff06f          	j	15174 <emul+0x240>
   153fc:	02010513          	add	a0,sp,32
   15400:	8edfe0ef          	jal	13cec <enormlz>
   15404:	40a009b3          	neg	s3,a0
   15408:	02215483          	lhu	s1,34(sp)
   1540c:	ec1ff06f          	j	152cc <emul+0x398>
   15410:	0124d803          	lhu	a6,18(s1)
   15414:	00b877b3          	and	a5,a6,a1
   15418:	e0b786e3          	beq	a5,a1,15224 <emul+0x2f0>
   1541c:	d35ff06f          	j	15150 <emul+0x21c>

0000000000015420 <_ldtoa_r>:
   15420:	d8010113          	add	sp,sp,-640
   15424:	09100313          	li	t1,145
   15428:	06c13c23          	sd	a2,120(sp)
   1542c:	06053e03          	ld	t3,96(a0)
   15430:	02031613          	sll	a2,t1,0x20
   15434:	fff60613          	add	a2,a2,-1
   15438:	26813823          	sd	s0,624(sp)
   1543c:	27213023          	sd	s2,608(sp)
   15440:	26113c23          	sd	ra,632(sp)
   15444:	26913423          	sd	s1,616(sp)
   15448:	25313c23          	sd	s3,600(sp)
   1544c:	25413823          	sd	s4,592(sp)
   15450:	25513423          	sd	s5,584(sp)
   15454:	25613023          	sd	s6,576(sp)
   15458:	23713c23          	sd	s7,568(sp)
   1545c:	23813823          	sd	s8,560(sp)
   15460:	23913423          	sd	s9,552(sp)
   15464:	23a13023          	sd	s10,544(sp)
   15468:	21b13c23          	sd	s11,536(sp)
   1546c:	06b13823          	sd	a1,112(sp)
   15470:	1cc13023          	sd	a2,448(sp)
   15474:	00d13423          	sd	a3,8(sp)
   15478:	00e13c23          	sd	a4,24(sp)
   1547c:	02f13023          	sd	a5,32(sp)
   15480:	03113423          	sd	a7,40(sp)
   15484:	00050913          	mv	s2,a0
   15488:	00080413          	mv	s0,a6
   1548c:	020e0863          	beqz	t3,154bc <_ldtoa_r+0x9c>
   15490:	06852783          	lw	a5,104(a0)
   15494:	00100713          	li	a4,1
   15498:	000e0593          	mv	a1,t3
   1549c:	00f7173b          	sllw	a4,a4,a5
   154a0:	02079793          	sll	a5,a5,0x20
   154a4:	02071713          	sll	a4,a4,0x20
   154a8:	0207d793          	srl	a5,a5,0x20
   154ac:	00e7e7b3          	or	a5,a5,a4
   154b0:	00fe3423          	sd	a5,8(t3)
   154b4:	7dd010ef          	jal	17490 <_Bfree>
   154b8:	06093023          	sd	zero,96(s2)
   154bc:	0a010593          	add	a1,sp,160
   154c0:	07010513          	add	a0,sp,112
   154c4:	b80ff0ef          	jal	14844 <e113toe.isra.0>
   154c8:	0b215683          	lhu	a3,178(sp)
   154cc:	000087b7          	lui	a5,0x8
   154d0:	fff78793          	add	a5,a5,-1 # 7fff <exit-0x80e9>
   154d4:	00f6f733          	and	a4,a3,a5
   154d8:	02e13823          	sd	a4,48(sp)
   154dc:	46f70863          	beq	a4,a5,1594c <_ldtoa_r+0x52c>
   154e0:	0106979b          	sllw	a5,a3,0x10
   154e4:	4107d79b          	sraw	a5,a5,0x10
   154e8:	00813703          	ld	a4,8(sp)
   154ec:	01f7d79b          	srlw	a5,a5,0x1f
   154f0:	00f42023          	sw	a5,0(s0)
   154f4:	00300793          	li	a5,3
   154f8:	12f70ae3          	beq	a4,a5,15e2c <_ldtoa_r+0xa0c>
   154fc:	01400793          	li	a5,20
   15500:	00f13823          	sd	a5,16(sp)
   15504:	00813783          	ld	a5,8(sp)
   15508:	140792e3          	bnez	a5,15e4c <_ldtoa_r+0xa2c>
   1550c:	0c010793          	add	a5,sp,192
   15510:	0a010713          	add	a4,sp,160
   15514:	0d410413          	add	s0,sp,212
   15518:	00075683          	lhu	a3,0(a4)
   1551c:	00278793          	add	a5,a5,2
   15520:	00270713          	add	a4,a4,2
   15524:	fed79f23          	sh	a3,-2(a5)
   15528:	fe8798e3          	bne	a5,s0,15518 <_ldtoa_r+0xf8>
   1552c:	0d215a83          	lhu	s5,210(sp)
   15530:	00000993          	li	s3,0
   15534:	00fad793          	srl	a5,s5,0xf
   15538:	00078c63          	beqz	a5,15550 <_ldtoa_r+0x130>
   1553c:	031a9f13          	sll	t5,s5,0x31
   15540:	031f5a93          	srl	s5,t5,0x31
   15544:	000107b7          	lui	a5,0x10
   15548:	0d511923          	sh	s5,210(sp)
   1554c:	fff78993          	add	s3,a5,-1 # ffff <exit-0xe9>
   15550:	00022bb7          	lui	s7,0x22
   15554:	000224b7          	lui	s1,0x22
   15558:	0e010713          	add	a4,sp,224
   1555c:	290b8793          	add	a5,s7,656 # 22290 <eone>
   15560:	2a448493          	add	s1,s1,676 # 222a4 <eone+0x14>
   15564:	0007d683          	lhu	a3,0(a5)
   15568:	00278793          	add	a5,a5,2
   1556c:	00270713          	add	a4,a4,2
   15570:	fed71f23          	sh	a3,-2(a4)
   15574:	fe9798e3          	bne	a5,s1,15564 <_ldtoa_r+0x144>
   15578:	6a0a9c63          	bnez	s5,15c30 <_ldtoa_r+0x810>
   1557c:	0c010793          	add	a5,sp,192
   15580:	0d210693          	add	a3,sp,210
   15584:	0007d703          	lhu	a4,0(a5)
   15588:	6a071e63          	bnez	a4,15c44 <_ldtoa_r+0x824>
   1558c:	00278793          	add	a5,a5,2
   15590:	fef69ae3          	bne	a3,a5,15584 <_ldtoa_r+0x164>
   15594:	00000413          	li	s0,0
   15598:	18010c13          	add	s8,sp,384
   1559c:	1c010b13          	add	s6,sp,448
   155a0:	12010a13          	add	s4,sp,288
   155a4:	13810d93          	add	s11,sp,312
   155a8:	000a0593          	mv	a1,s4
   155ac:	0e010513          	add	a0,sp,224
   155b0:	a6dfe0ef          	jal	1401c <emovi>
   155b4:	000a0493          	mv	s1,s4
   155b8:	0e010693          	add	a3,sp,224
   155bc:	000a0793          	mv	a5,s4
   155c0:	0007b703          	ld	a4,0(a5)
   155c4:	00878793          	add	a5,a5,8
   155c8:	00868693          	add	a3,a3,8
   155cc:	fee6bc23          	sd	a4,-8(a3)
   155d0:	ffb798e3          	bne	a5,s11,155c0 <_ldtoa_r+0x1a0>
   155d4:	000a0593          	mv	a1,s4
   155d8:	0c010513          	add	a0,sp,192
   155dc:	0e011c23          	sh	zero,248(sp)
   155e0:	a3dfe0ef          	jal	1401c <emovi>
   155e4:	0d810b93          	add	s7,sp,216
   155e8:	0c010793          	add	a5,sp,192
